libqt4qevercloud.so.3 libqt4qevercloud3 #MINVER#
 _Z17setNonceGeneratorPFyvE@Base 3.0.2
 _Z21qMetaTypeDeleteHelperI5QListIN10qevercloud11SavedSearchEEEvPT_@Base 3.0.2
 _Z21qMetaTypeDeleteHelperI5QListIN10qevercloud13NoteVersionIdEEEvPT_@Base 3.0.2
 _Z21qMetaTypeDeleteHelperI5QListIN10qevercloud14LinkedNotebookEEEvPT_@Base 3.0.2
 _Z21qMetaTypeDeleteHelperI5QListIN10qevercloud14SharedNotebookEEEvPT_@Base 3.0.2
 _Z21qMetaTypeDeleteHelperI5QListIN10qevercloud3TagEEEvPT_@Base 3.0.2
 _Z21qMetaTypeDeleteHelperI5QListIN10qevercloud8NotebookEEEvPT_@Base 3.0.2
 _Z21qMetaTypeDeleteHelperIN10qevercloud11PremiumInfoEEvPT_@Base 3.0.2
 _Z21qMetaTypeDeleteHelperIN10qevercloud11SavedSearchEEvPT_@Base 3.0.2
 _Z21qMetaTypeDeleteHelperIN10qevercloud13BootstrapInfoEEvPT_@Base 3.0.2
 _Z21qMetaTypeDeleteHelperIN10qevercloud13RelatedResultEEvPT_@Base 3.0.2
 _Z21qMetaTypeDeleteHelperIN10qevercloud14LinkedNotebookEEvPT_@Base 3.0.2
 _Z21qMetaTypeDeleteHelperIN10qevercloud14PublicUserInfoEEvPT_@Base 3.0.2
 _Z21qMetaTypeDeleteHelperIN10qevercloud14SharedNotebookEEvPT_@Base 3.0.2
 _Z21qMetaTypeDeleteHelperIN10qevercloud17NotesMetadataListEEvPT_@Base 3.0.2
 _Z21qMetaTypeDeleteHelperIN10qevercloud18ResourceAttributesEEvPT_@Base 3.0.2
 _Z21qMetaTypeDeleteHelperIN10qevercloud20AuthenticationResultEEvPT_@Base 3.0.2
 _Z21qMetaTypeDeleteHelperIN10qevercloud20NoteCollectionCountsEEvPT_@Base 3.0.2
 _Z21qMetaTypeDeleteHelperIN10qevercloud3TagEEvPT_@Base 3.0.2
 _Z21qMetaTypeDeleteHelperIN10qevercloud4NoteEEvPT_@Base 3.0.2
 _Z21qMetaTypeDeleteHelperIN10qevercloud4UserEEvPT_@Base 3.0.2
 _Z21qMetaTypeDeleteHelperIN10qevercloud7LazyMapEEvPT_@Base 3.0.2
 _Z21qMetaTypeDeleteHelperIN10qevercloud8NoteListEEvPT_@Base 3.0.2
 _Z21qMetaTypeDeleteHelperIN10qevercloud8NotebookEEvPT_@Base 3.0.2
 _Z21qMetaTypeDeleteHelperIN10qevercloud8ResourceEEvPT_@Base 3.0.2
 _Z21qMetaTypeDeleteHelperIN10qevercloud9SyncChunkEEvPT_@Base 3.0.2
 _Z21qMetaTypeDeleteHelperIN10qevercloud9SyncStateEEvPT_@Base 3.0.2
 _Z24qMetaTypeConstructHelperI5QListIN10qevercloud11SavedSearchEEEPvPKT_@Base 3.0.2
 _Z24qMetaTypeConstructHelperI5QListIN10qevercloud13NoteVersionIdEEEPvPKT_@Base 3.0.2
 _Z24qMetaTypeConstructHelperI5QListIN10qevercloud14LinkedNotebookEEEPvPKT_@Base 3.0.2
 _Z24qMetaTypeConstructHelperI5QListIN10qevercloud14SharedNotebookEEEPvPKT_@Base 3.0.2
 _Z24qMetaTypeConstructHelperI5QListIN10qevercloud3TagEEEPvPKT_@Base 3.0.2
 _Z24qMetaTypeConstructHelperI5QListIN10qevercloud8NotebookEEEPvPKT_@Base 3.0.2
 _Z24qMetaTypeConstructHelperIN10qevercloud11PremiumInfoEEPvPKT_@Base 3.0.2
 _Z24qMetaTypeConstructHelperIN10qevercloud11SavedSearchEEPvPKT_@Base 3.0.2
 _Z24qMetaTypeConstructHelperIN10qevercloud13BootstrapInfoEEPvPKT_@Base 3.0.2
 _Z24qMetaTypeConstructHelperIN10qevercloud13RelatedResultEEPvPKT_@Base 3.0.2
 _Z24qMetaTypeConstructHelperIN10qevercloud14LinkedNotebookEEPvPKT_@Base 3.0.2
 _Z24qMetaTypeConstructHelperIN10qevercloud14PublicUserInfoEEPvPKT_@Base 3.0.2
 _Z24qMetaTypeConstructHelperIN10qevercloud14SharedNotebookEEPvPKT_@Base 3.0.2
 _Z24qMetaTypeConstructHelperIN10qevercloud17NotesMetadataListEEPvPKT_@Base 3.0.2
 _Z24qMetaTypeConstructHelperIN10qevercloud18ResourceAttributesEEPvPKT_@Base 3.0.2
 _Z24qMetaTypeConstructHelperIN10qevercloud20AuthenticationResultEEPvPKT_@Base 3.0.2
 _Z24qMetaTypeConstructHelperIN10qevercloud20NoteCollectionCountsEEPvPKT_@Base 3.0.2
 _Z24qMetaTypeConstructHelperIN10qevercloud3TagEEPvPKT_@Base 3.0.2
 _Z24qMetaTypeConstructHelperIN10qevercloud4NoteEEPvPKT_@Base 3.0.2
 _Z24qMetaTypeConstructHelperIN10qevercloud4UserEEPvPKT_@Base 3.0.2
 _Z24qMetaTypeConstructHelperIN10qevercloud7LazyMapEEPvPKT_@Base 3.0.2
 _Z24qMetaTypeConstructHelperIN10qevercloud8NoteListEEPvPKT_@Base 3.0.2
 _Z24qMetaTypeConstructHelperIN10qevercloud8NotebookEEPvPKT_@Base 3.0.2
 _Z24qMetaTypeConstructHelperIN10qevercloud8ResourceEEPvPKT_@Base 3.0.2
 _Z24qMetaTypeConstructHelperIN10qevercloud9SyncChunkEEPvPKT_@Base 3.0.2
 _Z24qMetaTypeConstructHelperIN10qevercloud9SyncStateEEPvPKT_@Base 3.0.2
 _ZN10qevercloud10AccountingD1Ev@Base 3.0.2
 _ZN10qevercloud10AccountingD2Ev@Base 3.0.2
 _ZN10qevercloud10PublishingD1Ev@Base 3.0.2
 _ZN10qevercloud10PublishingD2Ev@Base 3.0.2
 _ZN10qevercloud11AsyncResult11qt_metacallEN11QMetaObject4CallEiPPv@Base 3.0.2
 _ZN10qevercloud11AsyncResult11qt_metacastEPKc@Base 3.0.2
 _ZN10qevercloud11AsyncResult14onReplyFetchedEP7QObject@Base 3.0.2
 _ZN10qevercloud11AsyncResult15waitForFinishedEi@Base 3.0.2
 _ZN10qevercloud11AsyncResult16staticMetaObjectE@Base 3.0.2
 _ZN10qevercloud11AsyncResult4asIsE10QByteArray@Base 3.0.2
 _ZN10qevercloud11AsyncResult5startEv@Base 3.0.2
 _ZN10qevercloud11AsyncResult8finishedE8QVariant14QSharedPointerINS_22EverCloudExceptionDataEE@Base 3.0.2
 _ZN10qevercloud11AsyncResultC1E15QNetworkRequest10QByteArrayPF8QVariantS2_EbP7QObject@Base 3.0.2
 _ZN10qevercloud11AsyncResultC1E7QString10QByteArrayPF8QVariantS2_EbP7QObject@Base 3.0.2
 _ZN10qevercloud11AsyncResultC2E15QNetworkRequest10QByteArrayPF8QVariantS2_EbP7QObject@Base 3.0.2
 _ZN10qevercloud11AsyncResultC2E7QString10QByteArrayPF8QVariantS2_EbP7QObject@Base 3.0.2
 _ZN10qevercloud11AsyncResultD0Ev@Base 3.0.2
 _ZN10qevercloud11AsyncResultD1Ev@Base 3.0.2
 _ZN10qevercloud11AsyncResultD2Ev@Base 3.0.2
 _ZN10qevercloud11SavedSearchD1Ev@Base 3.0.2
 _ZN10qevercloud11SavedSearchD2Ev@Base 3.0.2
 _ZN10qevercloud11askEvernoteE7QString10QByteArray@Base 3.0.2
 _ZN10qevercloud11readLazyMapERNS_24ThriftBinaryBufferReaderERNS_7LazyMapE@Base 3.0.2
 _ZN10qevercloud12NoteMetadataD1Ev@Base 3.0.2
 _ZN10qevercloud12NoteMetadataD2Ev@Base 3.0.2
 _ZN10qevercloud12ReplyFetcher10onFinishedEv@Base 3.0.2
 _ZN10qevercloud12ReplyFetcher11onSslErrorsE5QListI9QSslErrorE@Base 3.0.2
 _ZN10qevercloud12ReplyFetcher11qt_metacallEN11QMetaObject4CallEiPPv@Base 3.0.2
 _ZN10qevercloud12ReplyFetcher11qt_metacastEPKc@Base 3.0.2
 _ZN10qevercloud12ReplyFetcher12replyFetchedEP7QObject@Base 3.0.2
 _ZN10qevercloud12ReplyFetcher15checkForTimeoutEv@Base 3.0.2
 _ZN10qevercloud12ReplyFetcher16staticMetaObjectE@Base 3.0.2
 _ZN10qevercloud12ReplyFetcher18onDownloadProgressExx@Base 3.0.2
 _ZN10qevercloud12ReplyFetcher5startEP21QNetworkAccessManager15QNetworkRequest10QByteArray@Base 3.0.2
 _ZN10qevercloud12ReplyFetcher5startEP21QNetworkAccessManager4QUrl@Base 3.0.2
 _ZN10qevercloud12ReplyFetcher7onErrorEN13QNetworkReply12NetworkErrorE@Base 3.0.2
 _ZN10qevercloud12ReplyFetcher8setErrorE7QString@Base 3.0.2
 _ZN10qevercloud12ReplyFetcherC1Ev@Base 3.0.2
 _ZN10qevercloud12ReplyFetcherC2Ev@Base 3.0.2
 _ZN10qevercloud12ReplyFetcherD0Ev@Base 3.0.2
 _ZN10qevercloud12ReplyFetcherD1Ev@Base 3.0.2
 _ZN10qevercloud12ReplyFetcherD2Ev@Base 3.0.2
 _ZN10qevercloud12readNoteListERNS_24ThriftBinaryBufferReaderERNS_8NoteListE@Base 3.0.2
 _ZN10qevercloud12readNotebookERNS_24ThriftBinaryBufferReaderERNS_8NotebookE@Base 3.0.2
 _ZN10qevercloud12readResourceERNS_24ThriftBinaryBufferReaderERNS_8ResourceE@Base 3.0.2
 _ZN10qevercloud12writeLazyMapERNS_24ThriftBinaryBufferWriterERKNS_7LazyMapE@Base 3.0.2
 _ZN10qevercloud13EDAM_HASH_LENE@Base 3.0.2
 _ZN10qevercloud13RelatedResultD1Ev@Base 3.0.2
 _ZN10qevercloud13RelatedResultD2Ev@Base 3.0.2
 _ZN10qevercloud13readSyncChunkERNS_24ThriftBinaryBufferReaderERNS_9SyncChunkE@Base 3.0.2
 _ZN10qevercloud13readSyncStateERNS_24ThriftBinaryBufferReaderERNS_9SyncStateE@Base 3.0.2
 _ZN10qevercloud13writeNoteListERNS_24ThriftBinaryBufferWriterERKNS_8NoteListE@Base 3.0.2
 _ZN10qevercloud13writeNotebookERNS_24ThriftBinaryBufferWriterERKNS_8NotebookE@Base 3.0.2
 _ZN10qevercloud13writeResourceERNS_24ThriftBinaryBufferWriterERKNS_8ResourceE@Base 3.0.2
 _ZN10qevercloud14EDAM_VAT_REGEXE@Base 3.0.2
 _ZN10qevercloud14LinkedNotebookC1Ev@Base 3.0.2
 _ZN10qevercloud14LinkedNotebookC2Ev@Base 3.0.2
 _ZN10qevercloud14LinkedNotebookD1Ev@Base 3.0.2
 _ZN10qevercloud14LinkedNotebookD2Ev@Base 3.0.2
 _ZN10qevercloud14NoteAttributesC1ERKS0_@Base 3.0.2
 _ZN10qevercloud14NoteAttributesC1Ev@Base 3.0.2
 _ZN10qevercloud14NoteAttributesC2ERKS0_@Base 3.0.2
 _ZN10qevercloud14NoteAttributesC2Ev@Base 3.0.2
 _ZN10qevercloud14NoteAttributesD1Ev@Base 3.0.2
 _ZN10qevercloud14NoteAttributesD2Ev@Base 3.0.2
 _ZN10qevercloud14NoteAttributesaSERKS0_@Base 3.0.2
 _ZN10qevercloud14PublicUserInfoD1Ev@Base 3.0.2
 _ZN10qevercloud14PublicUserInfoD2Ev@Base 3.0.2
 _ZN10qevercloud14SharedNotebookC1Ev@Base 3.0.2
 _ZN10qevercloud14SharedNotebookC2Ev@Base 3.0.2
 _ZN10qevercloud14SharedNotebookD1Ev@Base 3.0.2
 _ZN10qevercloud14SharedNotebookD2Ev@Base 3.0.2
 _ZN10qevercloud14UserAttributesD1Ev@Base 3.0.2
 _ZN10qevercloud14UserAttributesD2Ev@Base 3.0.2
 _ZN10qevercloud14libraryVersionEv@Base 3.0.2
 _ZN10qevercloud14readAccountingERNS_24ThriftBinaryBufferReaderERNS_10AccountingE@Base 3.0.2
 _ZN10qevercloud14readNoteFilterERNS_24ThriftBinaryBufferReaderERNS_10NoteFilterE@Base 3.0.2
 _ZN10qevercloud14readPublishingERNS_24ThriftBinaryBufferReaderERNS_10PublishingE@Base 3.0.2
 _ZN10qevercloud14simpleDownloadEP21QNetworkAccessManager15QNetworkRequest10QByteArrayPi@Base 3.0.2
 _ZN10qevercloud14writeSyncChunkERNS_24ThriftBinaryBufferWriterERKNS_9SyncChunkE@Base 3.0.2
 _ZN10qevercloud14writeSyncStateERNS_24ThriftBinaryBufferWriterERKNS_9SyncStateE@Base 3.0.2
 _ZN10qevercloud15EDAM_GUID_REGEXE@Base 3.0.2
 _ZN10qevercloud15EDAM_MIME_REGEXE@Base 3.0.2
 _ZN10qevercloud15EDAM_MIME_TYPESE@Base 3.0.2
 _ZN10qevercloud15ThriftExceptionC1ENS0_4Type4typeE7QString@Base 3.0.2
 _ZN10qevercloud15ThriftExceptionC1ENS0_4Type4typeE@Base 3.0.2
 _ZN10qevercloud15ThriftExceptionC1Ev@Base 3.0.2
 _ZN10qevercloud15ThriftExceptionC2ENS0_4Type4typeE7QString@Base 3.0.2
 _ZN10qevercloud15ThriftExceptionC2ENS0_4Type4typeE@Base 3.0.2
 _ZN10qevercloud15ThriftExceptionC2Ev@Base 3.0.2
 _ZN10qevercloud15ThriftExceptionD0Ev@Base 3.0.2
 _ZN10qevercloud15ThriftExceptionD1Ev@Base 3.0.2
 _ZN10qevercloud15ThriftExceptionD2Ev@Base 3.0.2
 _ZN10qevercloud15readPremiumInfoERNS_24ThriftBinaryBufferReaderERNS_11PremiumInfoE@Base 3.0.2
 _ZN10qevercloud15readSavedSearchERNS_24ThriftBinaryBufferReaderERNS_11SavedSearchE@Base 3.0.2
 _ZN10qevercloud15writeAccountingERNS_24ThriftBinaryBufferWriterERKNS_10AccountingE@Base 3.0.2
 _ZN10qevercloud15writeNoteFilterERNS_24ThriftBinaryBufferWriterERKNS_10NoteFilterE@Base 3.0.2
 _ZN10qevercloud15writePublishingERNS_24ThriftBinaryBufferWriterERKNS_10PublishingE@Base 3.0.2
 _ZN10qevercloud16BootstrapProfileD1Ev@Base 3.0.2
 _ZN10qevercloud16BootstrapProfileD2Ev@Base 3.0.2
 _ZN10qevercloud16BusinessUserInfoD1Ev@Base 3.0.2
 _ZN10qevercloud16BusinessUserInfoD2Ev@Base 3.0.2
 _ZN10qevercloud16EDAM_EMAIL_REGEXE@Base 3.0.2
 _ZN10qevercloud16readNoteMetadataERNS_24ThriftBinaryBufferReaderERNS_12NoteMetadataE@Base 3.0.2
 _ZN10qevercloud16readRelatedQueryERNS_24ThriftBinaryBufferReaderERNS_12RelatedQueryE@Base 3.0.2
 _ZN10qevercloud16strEDAMErrorCodeENS_13EDAMErrorCode4typeE@Base 3.0.2
 _ZN10qevercloud16writePremiumInfoERNS_24ThriftBinaryBufferWriterERKNS_11PremiumInfoE@Base 3.0.2
 _ZN10qevercloud16writeSavedSearchERNS_24ThriftBinaryBufferWriterERKNS_11SavedSearchE@Base 3.0.2
 _ZN10qevercloud17EDAMUserExceptionD0Ev@Base 3.0.2
 _ZN10qevercloud17EDAMUserExceptionD1Ev@Base 3.0.2
 _ZN10qevercloud17EDAMUserExceptionD2Ev@Base 3.0.2
 _ZN10qevercloud17EDAM_GUID_LEN_MAXE@Base 3.0.2
 _ZN10qevercloud17EDAM_GUID_LEN_MINE@Base 3.0.2
 _ZN10qevercloud17EDAM_MIME_LEN_MAXE@Base 3.0.2
 _ZN10qevercloud17EDAM_MIME_LEN_MINE@Base 3.0.2
 _ZN10qevercloud17EventLoopFinisher11qt_metacallEN11QMetaObject4CallEiPPv@Base 3.0.2
 _ZN10qevercloud17EventLoopFinisher11qt_metacastEPKc@Base 3.0.2
 _ZN10qevercloud17EventLoopFinisher13stopEventLoopEv@Base 3.0.2
 _ZN10qevercloud17EventLoopFinisher16staticMetaObjectE@Base 3.0.2
 _ZN10qevercloud17EventLoopFinisherC1EP10QEventLoopiP7QObject@Base 3.0.2
 _ZN10qevercloud17EventLoopFinisherC2EP10QEventLoopiP7QObject@Base 3.0.2
 _ZN10qevercloud17EventLoopFinisherD0Ev@Base 3.0.2
 _ZN10qevercloud17EventLoopFinisherD1Ev@Base 3.0.2
 _ZN10qevercloud17EventLoopFinisherD2Ev@Base 3.0.2
 _ZN10qevercloud17EvernoteExceptionC1E7QString@Base 3.0.2
 _ZN10qevercloud17EvernoteExceptionC1EPKc@Base 3.0.2
 _ZN10qevercloud17EvernoteExceptionC1ERKNSt7__cxx1112basic_stringIcSt11char_traitsIcESaIcEEE@Base 3.0.2
 _ZN10qevercloud17EvernoteExceptionC1Ev@Base 3.0.2
 _ZN10qevercloud17EvernoteExceptionC2E7QString@Base 3.0.2
 _ZN10qevercloud17EvernoteExceptionC2EPKc@Base 3.0.2
 _ZN10qevercloud17EvernoteExceptionC2ERKNSt7__cxx1112basic_stringIcSt11char_traitsIcESaIcEEE@Base 3.0.2
 _ZN10qevercloud17EvernoteExceptionC2Ev@Base 3.0.2
 _ZN10qevercloud17EvernoteExceptionD0Ev@Base 3.0.2
 _ZN10qevercloud17EvernoteExceptionD1Ev@Base 3.0.2
 _ZN10qevercloud17EvernoteExceptionD2Ev@Base 3.0.2
 _ZN10qevercloud17NotesMetadataListD1Ev@Base 3.0.2
 _ZN10qevercloud17NotesMetadataListD2Ev@Base 3.0.2
 _ZN10qevercloud17readBootstrapInfoERNS_24ThriftBinaryBufferReaderERNS_13BootstrapInfoE@Base 3.0.2
 _ZN10qevercloud17readNoteVersionIdERNS_24ThriftBinaryBufferReaderERNS_13NoteVersionIdE@Base 3.0.2
 _ZN10qevercloud17readRelatedResultERNS_24ThriftBinaryBufferReaderERNS_13RelatedResultE@Base 3.0.2
 _ZN10qevercloud17writeNoteMetadataERNS_24ThriftBinaryBufferWriterERKNS_12NoteMetadataE@Base 3.0.2
 _ZN10qevercloud17writeRelatedQueryERNS_24ThriftBinaryBufferWriterERKNS_12RelatedQueryE@Base 3.0.2
 _ZN10qevercloud18AsyncResultPrivateC1E15QNetworkRequest10QByteArrayPF8QVariantS2_EbPNS_11AsyncResultE@Base 3.0.2
 _ZN10qevercloud18AsyncResultPrivateC1E7QString10QByteArrayPF8QVariantS2_EbPNS_11AsyncResultE@Base 3.0.2
 _ZN10qevercloud18AsyncResultPrivateC2E15QNetworkRequest10QByteArrayPF8QVariantS2_EbPNS_11AsyncResultE@Base 3.0.2
 _ZN10qevercloud18AsyncResultPrivateC2E7QString10QByteArrayPF8QVariantS2_EbPNS_11AsyncResultE@Base 3.0.2
 _ZN10qevercloud18AsyncResultPrivateD0Ev@Base 3.0.2
 _ZN10qevercloud18AsyncResultPrivateD1Ev@Base 3.0.2
 _ZN10qevercloud18AsyncResultPrivateD2Ev@Base 3.0.2
 _ZN10qevercloud18EDAM_EMAIL_LEN_MAXE@Base 3.0.2
 _ZN10qevercloud18EDAM_EMAIL_LEN_MINE@Base 3.0.2
 _ZN10qevercloud18EDAM_MIME_TYPE_AACE@Base 3.0.2
 _ZN10qevercloud18EDAM_MIME_TYPE_AMRE@Base 3.0.2
 _ZN10qevercloud18EDAM_MIME_TYPE_GIFE@Base 3.0.2
 _ZN10qevercloud18EDAM_MIME_TYPE_INKE@Base 3.0.2
 _ZN10qevercloud18EDAM_MIME_TYPE_M4AE@Base 3.0.2
 _ZN10qevercloud18EDAM_MIME_TYPE_MP3E@Base 3.0.2
 _ZN10qevercloud18EDAM_MIME_TYPE_PDFE@Base 3.0.2
 _ZN10qevercloud18EDAM_MIME_TYPE_PNGE@Base 3.0.2
 _ZN10qevercloud18EDAM_MIME_TYPE_WAVE@Base 3.0.2
 _ZN10qevercloud18EDAM_NOTE_TAGS_MAXE@Base 3.0.2
 _ZN10qevercloud18EDAM_USER_TAGS_MAXE@Base 3.0.2
 _ZN10qevercloud18EDAM_VERSION_MAJORE@Base 3.0.2
 _ZN10qevercloud18EDAM_VERSION_MINORE@Base 3.0.2
 _ZN10qevercloud18EverCloudExceptionC1E7QString@Base 3.0.2
 _ZN10qevercloud18EverCloudExceptionC1EPKc@Base 3.0.2
 _ZN10qevercloud18EverCloudExceptionC1ERKNSt7__cxx1112basic_stringIcSt11char_traitsIcESaIcEEE@Base 3.0.2
 _ZN10qevercloud18EverCloudExceptionC1Ev@Base 3.0.2
 _ZN10qevercloud18EverCloudExceptionC2E7QString@Base 3.0.2
 _ZN10qevercloud18EverCloudExceptionC2EPKc@Base 3.0.2
 _ZN10qevercloud18EverCloudExceptionC2ERKNSt7__cxx1112basic_stringIcSt11char_traitsIcESaIcEEE@Base 3.0.2
 _ZN10qevercloud18EverCloudExceptionC2Ev@Base 3.0.2
 _ZN10qevercloud18EverCloudExceptionD0Ev@Base 3.0.2
 _ZN10qevercloud18EverCloudExceptionD1Ev@Base 3.0.2
 _ZN10qevercloud18EverCloudExceptionD2Ev@Base 3.0.2
 _ZN10qevercloud18NotebookDescriptorD1Ev@Base 3.0.2
 _ZN10qevercloud18NotebookDescriptorD2Ev@Base 3.0.2
 _ZN10qevercloud18ResourceAttributesC1Ev@Base 3.0.2
 _ZN10qevercloud18ResourceAttributesC2Ev@Base 3.0.2
 _ZN10qevercloud18ResourceAttributesD1Ev@Base 3.0.2
 _ZN10qevercloud18ResourceAttributesD2Ev@Base 3.0.2
 _ZN10qevercloud18readLinkedNotebookERNS_24ThriftBinaryBufferReaderERNS_14LinkedNotebookE@Base 3.0.2
 _ZN10qevercloud18readNoteAttributesERNS_24ThriftBinaryBufferReaderERNS_14NoteAttributesE@Base 3.0.2
 _ZN10qevercloud18readPublicUserInfoERNS_24ThriftBinaryBufferReaderERNS_14PublicUserInfoE@Base 3.0.2
 _ZN10qevercloud18readSharedNotebookERNS_24ThriftBinaryBufferReaderERNS_14SharedNotebookE@Base 3.0.2
 _ZN10qevercloud18readUserAttributesERNS_24ThriftBinaryBufferReaderERNS_14UserAttributesE@Base 3.0.2
 _ZN10qevercloud18writeBootstrapInfoERNS_24ThriftBinaryBufferWriterERKNS_13BootstrapInfoE@Base 3.0.2
 _ZN10qevercloud18writeNoteVersionIdERNS_24ThriftBinaryBufferWriterERKNS_13NoteVersionIdE@Base 3.0.2
 _ZN10qevercloud18writeRelatedResultERNS_24ThriftBinaryBufferWriterERKNS_13RelatedResultE@Base 3.0.2
 _ZN10qevercloud19EDAMSystemExceptionD0Ev@Base 3.0.2
 _ZN10qevercloud19EDAMSystemExceptionD1Ev@Base 3.0.2
 _ZN10qevercloud19EDAMSystemExceptionD2Ev@Base 3.0.2
 _ZN10qevercloud19EDAM_MIME_TYPE_JPEGE@Base 3.0.2
 _ZN10qevercloud19EDAM_TAG_NAME_REGEXE@Base 3.0.2
 _ZN10qevercloud19EDAM_TIMEZONE_REGEXE@Base 3.0.2
 _ZN10qevercloud19EDAM_USER_NOTES_MAXE@Base 3.0.2
 _ZN10qevercloud19EvernoteOAuthDialog18setWebViewSizeHintE5QSize@Base 3.0.2
 _ZN10qevercloud19EvernoteOAuthDialog4execEv@Base 3.0.2
 _ZN10qevercloud19EvernoteOAuthDialog4openEv@Base 3.0.2
 _ZN10qevercloud19EvernoteOAuthDialogC1E7QStringS1_S1_P7QWidget@Base 3.0.2
 _ZN10qevercloud19EvernoteOAuthDialogC2E7QStringS1_S1_P7QWidget@Base 3.0.2
 _ZN10qevercloud19EvernoteOAuthDialogD0Ev@Base 3.0.2
 _ZN10qevercloud19EvernoteOAuthDialogD1Ev@Base 3.0.2
 _ZN10qevercloud19EvernoteOAuthDialogD2Ev@Base 3.0.2
 _ZN10qevercloud19ThriftExceptionData11qt_metacallEN11QMetaObject4CallEiPPv@Base 3.0.2
 _ZN10qevercloud19ThriftExceptionData11qt_metacastEPKc@Base 3.0.2
 _ZN10qevercloud19ThriftExceptionData16staticMetaObjectE@Base 3.0.2
 _ZN10qevercloud19ThriftExceptionDataC1E7QStringNS_15ThriftException4Type4typeE@Base 3.0.2
 _ZN10qevercloud19ThriftExceptionDataC2E7QStringNS_15ThriftException4Type4typeE@Base 3.0.2
 _ZN10qevercloud19ThriftExceptionDataD0Ev@Base 3.0.2
 _ZN10qevercloud19ThriftExceptionDataD1Ev@Base 3.0.2
 _ZN10qevercloud19ThriftExceptionDataD2Ev@Base 3.0.2
 _ZN10qevercloud19readEnumQueryFormatERNS_24ThriftBinaryBufferReaderERNS_11QueryFormat4typeE@Base 3.0.2
 _ZN10qevercloud19readSyncChunkFilterERNS_24ThriftBinaryBufferReaderERNS_15SyncChunkFilterE@Base 3.0.2
 _ZN10qevercloud19readThriftExceptionERNS_24ThriftBinaryBufferReaderE@Base 3.0.2
 _ZN10qevercloud19writeLinkedNotebookERNS_24ThriftBinaryBufferWriterERKNS_14LinkedNotebookE@Base 3.0.2
 _ZN10qevercloud19writeNoteAttributesERNS_24ThriftBinaryBufferWriterERKNS_14NoteAttributesE@Base 3.0.2
 _ZN10qevercloud19writePublicUserInfoERNS_24ThriftBinaryBufferWriterERKNS_14PublicUserInfoE@Base 3.0.2
 _ZN10qevercloud19writeSharedNotebookERNS_24ThriftBinaryBufferWriterERKNS_14SharedNotebookE@Base 3.0.2
 _ZN10qevercloud19writeUserAttributesERNS_24ThriftBinaryBufferWriterERKNS_14UserAttributesE@Base 3.0.2
 _ZN10qevercloud20AuthenticationResultC1Ev@Base 3.0.2
 _ZN10qevercloud20AuthenticationResultC2Ev@Base 3.0.2
 _ZN10qevercloud20AuthenticationResultD1Ev@Base 3.0.2
 _ZN10qevercloud20AuthenticationResultD2Ev@Base 3.0.2
 _ZN10qevercloud20EDAM_ATTRIBUTE_REGEXE@Base 3.0.2
 _ZN10qevercloud20EDAM_DEVICE_ID_REGEXE@Base 3.0.2
 _ZN10qevercloud20EDAM_MAX_PREFERENCESE@Base 3.0.2
 _ZN10qevercloud20EDAM_USER_NAME_REGEXE@Base 3.0.2
 _ZN10qevercloud20EvernoteOAuthWebView11qt_metacallEN11QMetaObject4CallEiPPv@Base 3.0.2
 _ZN10qevercloud20EvernoteOAuthWebView11qt_metacastEPKc@Base 3.0.2
 _ZN10qevercloud20EvernoteOAuthWebView11setSizeHintE5QSize@Base 3.0.2
 _ZN10qevercloud20EvernoteOAuthWebView12authenticateE7QStringS1_S1_@Base 3.0.2
 _ZN10qevercloud20EvernoteOAuthWebView16staticMetaObjectE@Base 3.0.2
 _ZN10qevercloud20EvernoteOAuthWebView20authenticationFailedEv@Base 3.0.2
 _ZN10qevercloud20EvernoteOAuthWebView22authenticationFinishedEb@Base 3.0.2
 _ZN10qevercloud20EvernoteOAuthWebView22authenticationSuceededEv@Base 3.0.2
 _ZN10qevercloud20EvernoteOAuthWebViewC1EP7QWidget@Base 3.0.2
 _ZN10qevercloud20EvernoteOAuthWebViewC2EP7QWidget@Base 3.0.2
 _ZN10qevercloud20EvernoteOAuthWebViewD0Ev@Base 3.0.2
 _ZN10qevercloud20EvernoteOAuthWebViewD1Ev@Base 3.0.2
 _ZN10qevercloud20EvernoteOAuthWebViewD2Ev@Base 3.0.2
 _ZN10qevercloud20readBootstrapProfileERNS_24ThriftBinaryBufferReaderERNS_16BootstrapProfileE@Base 3.0.2
 _ZN10qevercloud20readBusinessNotebookERNS_24ThriftBinaryBufferReaderERNS_16BusinessNotebookE@Base 3.0.2
 _ZN10qevercloud20readBusinessUserInfoERNS_24ThriftBinaryBufferReaderERNS_16BusinessUserInfoE@Base 3.0.2
 _ZN10qevercloud20readSavedSearchScopeERNS_24ThriftBinaryBufferReaderERNS_16SavedSearchScopeE@Base 3.0.2
 _ZN10qevercloud20writeSyncChunkFilterERNS_24ThriftBinaryBufferWriterERKNS_15SyncChunkFilterE@Base 3.0.2
 _ZN10qevercloud21EDAMNotFoundExceptionC1Ev@Base 3.0.2
 _ZN10qevercloud21EDAMNotFoundExceptionC2Ev@Base 3.0.2
 _ZN10qevercloud21EDAMNotFoundExceptionD0Ev@Base 3.0.2
 _ZN10qevercloud21EDAMNotFoundExceptionD1Ev@Base 3.0.2
 _ZN10qevercloud21EDAMNotFoundExceptionD2Ev@Base 3.0.2
 _ZN10qevercloud21EDAMUserExceptionData11qt_metacallEN11QMetaObject4CallEiPPv@Base 3.0.2
 _ZN10qevercloud21EDAMUserExceptionData11qt_metacastEPKc@Base 3.0.2
 _ZN10qevercloud21EDAMUserExceptionData16staticMetaObjectE@Base 3.0.2
 _ZN10qevercloud21EDAMUserExceptionDataC1E7QStringNS_13EDAMErrorCode4typeENS_8OptionalIS1_EE@Base 3.0.2
 _ZN10qevercloud21EDAMUserExceptionDataC2E7QStringNS_13EDAMErrorCode4typeENS_8OptionalIS1_EE@Base 3.0.2
 _ZN10qevercloud21EDAMUserExceptionDataD0Ev@Base 3.0.2
 _ZN10qevercloud21EDAMUserExceptionDataD1Ev@Base 3.0.2
 _ZN10qevercloud21EDAMUserExceptionDataD2Ev@Base 3.0.2
 _ZN10qevercloud21EDAM_NOTE_TITLE_REGEXE@Base 3.0.2
 _ZN10qevercloud21EDAM_RELATED_MAX_TAGSE@Base 3.0.2
 _ZN10qevercloud21EDAM_TAG_NAME_LEN_MAXE@Base 3.0.2
 _ZN10qevercloud21EDAM_TAG_NAME_LEN_MINE@Base 3.0.2
 _ZN10qevercloud21EDAM_TIMEZONE_LEN_MAXE@Base 3.0.2
 _ZN10qevercloud21EDAM_TIMEZONE_LEN_MINE@Base 3.0.2
 _ZN10qevercloud21EvernoteExceptionData11qt_metacallEN11QMetaObject4CallEiPPv@Base 3.0.2
 _ZN10qevercloud21EvernoteExceptionData11qt_metacastEPKc@Base 3.0.2
 _ZN10qevercloud21EvernoteExceptionData16staticMetaObjectE@Base 3.0.2
 _ZN10qevercloud21EvernoteExceptionDataC1E7QString@Base 3.0.2
 _ZN10qevercloud21EvernoteExceptionDataC2E7QString@Base 3.0.2
 _ZN10qevercloud21EvernoteExceptionDataD0Ev@Base 3.0.2
 _ZN10qevercloud21EvernoteExceptionDataD1Ev@Base 3.0.2
 _ZN10qevercloud21EvernoteExceptionDataD2Ev@Base 3.0.2
 _ZN10qevercloud21createEvernoteRequestE7QString@Base 3.0.2
 _ZN10qevercloud21readBootstrapSettingsERNS_24ThriftBinaryBufferReaderERNS_17BootstrapSettingsE@Base 3.0.2
 _ZN10qevercloud21readEDAMUserExceptionERNS_24ThriftBinaryBufferReaderERNS_17EDAMUserExceptionE@Base 3.0.2
 _ZN10qevercloud21readEnumEDAMErrorCodeERNS_24ThriftBinaryBufferReaderERNS_13EDAMErrorCode4typeE@Base 3.0.2
 _ZN10qevercloud21readEnumNoteSortOrderERNS_24ThriftBinaryBufferReaderERNS_13NoteSortOrder4typeE@Base 3.0.2
 _ZN10qevercloud21readNotesMetadataListERNS_24ThriftBinaryBufferReaderERNS_17NotesMetadataListE@Base 3.0.2
 _ZN10qevercloud21readRelatedResultSpecERNS_24ThriftBinaryBufferReaderERNS_17RelatedResultSpecE@Base 3.0.2
 _ZN10qevercloud21writeBootstrapProfileERNS_24ThriftBinaryBufferWriterERKNS_16BootstrapProfileE@Base 3.0.2
 _ZN10qevercloud21writeBusinessNotebookERNS_24ThriftBinaryBufferWriterERKNS_16BusinessNotebookE@Base 3.0.2
 _ZN10qevercloud21writeBusinessUserInfoERNS_24ThriftBinaryBufferWriterERKNS_16BusinessUserInfoE@Base 3.0.2
 _ZN10qevercloud21writeSavedSearchScopeERNS_24ThriftBinaryBufferWriterERKNS_16SavedSearchScopeE@Base 3.0.2
 _ZN10qevercloud22EDAM_ATTRIBUTE_LEN_MAXE@Base 3.0.2
 _ZN10qevercloud22EDAM_ATTRIBUTE_LEN_MINE@Base 3.0.2
 _ZN10qevercloud22EDAM_ATTRIBUTE_MAP_MAXE@Base 3.0.2
 _ZN10qevercloud22EDAM_BUSINESS_TAGS_MAXE@Base 3.0.2
 _ZN10qevercloud22EDAM_DEVICE_ID_LEN_MAXE@Base 3.0.2
 _ZN10qevercloud22EDAM_EMAIL_LOCAL_REGEXE@Base 3.0.2
 _ZN10qevercloud22EDAM_MIME_TYPE_DEFAULTE@Base 3.0.2
 _ZN10qevercloud22EDAM_RELATED_MAX_NOTESE@Base 3.0.2
 _ZN10qevercloud22EDAM_USER_NAME_LEN_MAXE@Base 3.0.2
 _ZN10qevercloud22EDAM_USER_NAME_LEN_MINE@Base 3.0.2
 _ZN10qevercloud22EverCloudExceptionData11qt_metacallEN11QMetaObject4CallEiPPv@Base 3.0.2
 _ZN10qevercloud22EverCloudExceptionData11qt_metacastEPKc@Base 3.0.2
 _ZN10qevercloud22EverCloudExceptionData16staticMetaObjectE@Base 3.0.2
 _ZN10qevercloud22EverCloudExceptionDataC1E7QString@Base 3.0.2
 _ZN10qevercloud22EverCloudExceptionDataC2E7QString@Base 3.0.2
 _ZN10qevercloud22EverCloudExceptionDataD0Ev@Base 3.0.2
 _ZN10qevercloud22EverCloudExceptionDataD1Ev@Base 3.0.2
 _ZN10qevercloud22EverCloudExceptionDataD2Ev@Base 3.0.2
 _ZN10qevercloud22readClientUsageMetricsERNS_24ThriftBinaryBufferReaderERNS_18ClientUsageMetricsE@Base 3.0.2
 _ZN10qevercloud22readEnumPrivilegeLevelERNS_24ThriftBinaryBufferReaderERNS_14PrivilegeLevel4typeE@Base 3.0.2
 _ZN10qevercloud22readNotebookDescriptorERNS_24ThriftBinaryBufferReaderERNS_18NotebookDescriptorE@Base 3.0.2
 _ZN10qevercloud22readResourceAttributesERNS_24ThriftBinaryBufferReaderERNS_18ResourceAttributesE@Base 3.0.2
 _ZN10qevercloud22writeBootstrapSettingsERNS_24ThriftBinaryBufferWriterERKNS_17BootstrapSettingsE@Base 3.0.2
 _ZN10qevercloud22writeNotesMetadataListERNS_24ThriftBinaryBufferWriterERKNS_17NotesMetadataListE@Base 3.0.2
 _ZN10qevercloud22writeRelatedResultSpecERNS_24ThriftBinaryBufferWriterERKNS_17RelatedResultSpecE@Base 3.0.2
 _ZN10qevercloud23EDAMSystemExceptionData11qt_metacallEN11QMetaObject4CallEiPPv@Base 3.0.2
 _ZN10qevercloud23EDAMSystemExceptionData11qt_metacastEPKc@Base 3.0.2
 _ZN10qevercloud23EDAMSystemExceptionData16staticMetaObjectE@Base 3.0.2
 _ZN10qevercloud23EDAMSystemExceptionDataC1E7QStringNS_13EDAMErrorCode4typeENS_8OptionalIS1_EENS4_IiEE@Base 3.0.2
 _ZN10qevercloud23EDAMSystemExceptionDataC2E7QStringNS_13EDAMErrorCode4typeENS_8OptionalIS1_EENS4_IiEE@Base 3.0.2
 _ZN10qevercloud23EDAMSystemExceptionDataD0Ev@Base 3.0.2
 _ZN10qevercloud23EDAMSystemExceptionDataD1Ev@Base 3.0.2
 _ZN10qevercloud23EDAMSystemExceptionDataD2Ev@Base 3.0.2
 _ZN10qevercloud23EDAM_ATTRIBUTE_LIST_MAXE@Base 3.0.2
 _ZN10qevercloud23EDAM_BUSINESS_NOTES_MAXE@Base 3.0.2
 _ZN10qevercloud23EDAM_EMAIL_DOMAIN_REGEXE@Base 3.0.2
 _ZN10qevercloud23EDAM_NOTE_RESOURCES_MAXE@Base 3.0.2
 _ZN10qevercloud23EDAM_NOTE_SIZE_MAX_FREEE@Base 3.0.2
 _ZN10qevercloud23EDAM_NOTE_TITLE_LEN_MAXE@Base 3.0.2
 _ZN10qevercloud23EDAM_NOTE_TITLE_LEN_MINE@Base 3.0.2
 _ZN10qevercloud23EDAM_SEARCH_QUERY_REGEXE@Base 3.0.2
 _ZN10qevercloud23EDAM_USER_NOTEBOOKS_MAXE@Base 3.0.2
 _ZN10qevercloud23readEDAMSystemExceptionERNS_24ThriftBinaryBufferReaderERNS_19EDAMSystemExceptionE@Base 3.0.2
 _ZN10qevercloud23readNoteEmailParametersERNS_24ThriftBinaryBufferReaderERNS_19NoteEmailParametersE@Base 3.0.2
 _ZN10qevercloud23writeClientUsageMetricsERNS_24ThriftBinaryBufferWriterERKNS_18ClientUsageMetricsE@Base 3.0.2
 _ZN10qevercloud23writeNotebookDescriptorERNS_24ThriftBinaryBufferWriterERKNS_18NotebookDescriptorE@Base 3.0.2
 _ZN10qevercloud23writeResourceAttributesERNS_24ThriftBinaryBufferWriterERKNS_18ResourceAttributesE@Base 3.0.2
 _ZN10qevercloud24EDAM_MIME_TYPE_MP4_VIDEOE@Base 3.0.2
 _ZN10qevercloud24EDAM_NOTEBOOK_NAME_REGEXE@Base 3.0.2
 _ZN10qevercloud24EDAM_USER_PASSWORD_REGEXE@Base 3.0.2
 _ZN10qevercloud24EDAM_USER_USERNAME_REGEXE@Base 3.0.2
 _ZN10qevercloud24ThriftBinaryBufferReader10readBinaryER10QByteArray@Base 3.0.2
 _ZN10qevercloud24ThriftBinaryBufferReader10readStringER7QString@Base 3.0.2
 _ZN10qevercloud24ThriftBinaryBufferReader12readMapBeginERNS_15ThriftFieldType4typeES3_Ri@Base 3.0.2
 _ZN10qevercloud24ThriftBinaryBufferReader13readListBeginERNS_15ThriftFieldType4typeERi@Base 3.0.2
 _ZN10qevercloud24ThriftBinaryBufferReader16readMessageBeginER7QStringRNS_17ThriftMessageType4typeERi@Base 3.0.2
 _ZN10qevercloud24ThriftBinaryBufferReader4readEPhi@Base 3.0.2
 _ZN10qevercloud24ThriftBinaryBufferReader4skipENS_15ThriftFieldType4typeE@Base 3.0.2
 _ZN10qevercloud24ThriftBinaryBufferWriter11writeDoubleEd@Base 3.0.2
 _ZN10qevercloud24ThriftBinaryBufferWriter11writeStringERK7QString@Base 3.0.2
 _ZN10qevercloud24ThriftBinaryBufferWriter14writeListBeginENS_15ThriftFieldType4typeEi@Base 3.0.2
 _ZN10qevercloud24ThriftBinaryBufferWriter17writeMessageBeginE7QStringNS_17ThriftMessageType4typeEi@Base 3.0.2
 _ZN10qevercloud24ThriftBinaryBufferWriter8writeI32Ei@Base 3.0.2
 _ZN10qevercloud24ThriftBinaryBufferWriter8writeI64Ex@Base 3.0.2
 _ZN10qevercloud24readAuthenticationResultERNS_24ThriftBinaryBufferReaderERNS_20AuthenticationResultE@Base 3.0.2
 _ZN10qevercloud24readEnumBusinessUserRoleERNS_24ThriftBinaryBufferReaderERNS_16BusinessUserRole4typeE@Base 3.0.2
 _ZN10qevercloud24readNoteCollectionCountsERNS_24ThriftBinaryBufferReaderERNS_20NoteCollectionCountsE@Base 3.0.2
 _ZN10qevercloud24readNotebookRestrictionsERNS_24ThriftBinaryBufferReaderERNS_20NotebookRestrictionsE@Base 3.0.2
 _ZN10qevercloud24throwEDAMSystemExceptionERKNS_19EDAMSystemExceptionE@Base 3.0.2
 _ZN10qevercloud24writeNoteEmailParametersERNS_24ThriftBinaryBufferWriterERKNS_19NoteEmailParametersE@Base 3.0.2
 _ZN10qevercloud25EDAMNotFoundExceptionData11qt_metacallEN11QMetaObject4CallEiPPv@Base 3.0.2
 _ZN10qevercloud25EDAMNotFoundExceptionData11qt_metacastEPKc@Base 3.0.2
 _ZN10qevercloud25EDAMNotFoundExceptionData16staticMetaObjectE@Base 3.0.2
 _ZN10qevercloud25EDAMNotFoundExceptionDataC1E7QStringNS_8OptionalIS1_EES3_@Base 3.0.2
 _ZN10qevercloud25EDAMNotFoundExceptionDataC2E7QStringNS_8OptionalIS1_EES3_@Base 3.0.2
 _ZN10qevercloud25EDAMNotFoundExceptionDataD0Ev@Base 3.0.2
 _ZN10qevercloud25EDAMNotFoundExceptionDataD1Ev@Base 3.0.2
 _ZN10qevercloud25EDAMNotFoundExceptionDataD2Ev@Base 3.0.2
 _ZN10qevercloud25EDAM_BUSINESS_URI_LEN_MAXE@Base 3.0.2
 _ZN10qevercloud25EDAM_CONTENT_CLASS_SKITCHE@Base 3.0.2
 _ZN10qevercloud25EDAM_NOTEBOOK_STACK_REGEXE@Base 3.0.2
 _ZN10qevercloud25EDAM_NOTE_CONTENT_LEN_MAXE@Base 3.0.2
 _ZN10qevercloud25EDAM_NOTE_CONTENT_LEN_MINE@Base 3.0.2
 _ZN10qevercloud25EDAM_NOTE_SOURCE_WEB_CLIPE@Base 3.0.2
 _ZN10qevercloud25EDAM_PREFERENCE_SHORTCUTSE@Base 3.0.2
 _ZN10qevercloud25EDAM_PUBLISHING_URI_REGEXE@Base 3.0.2
 _ZN10qevercloud25EDAM_SEARCH_QUERY_LEN_MAXE@Base 3.0.2
 _ZN10qevercloud25EDAM_SEARCH_QUERY_LEN_MINE@Base 3.0.2
 _ZN10qevercloud25readEDAMNotFoundExceptionERNS_24ThriftBinaryBufferReaderERNS_21EDAMNotFoundExceptionE@Base 3.0.2
 _ZN10qevercloud25writeAuthenticationResultERNS_24ThriftBinaryBufferWriterERKNS_20AuthenticationResultE@Base 3.0.2
 _ZN10qevercloud25writeNoteCollectionCountsERNS_24ThriftBinaryBufferWriterERKNS_20NoteCollectionCountsE@Base 3.0.2
 _ZN10qevercloud25writeNotebookRestrictionsERNS_24ThriftBinaryBufferWriterERKNS_20NotebookRestrictionsE@Base 3.0.2
 _ZN10qevercloud26EDAM_NOTEBOOK_NAME_LEN_MAXE@Base 3.0.2
 _ZN10qevercloud26EDAM_NOTEBOOK_NAME_LEN_MINE@Base 3.0.2
 _ZN10qevercloud26EDAM_NOTE_SIZE_MAX_PREMIUME@Base 3.0.2
 _ZN10qevercloud26EDAM_NOTE_SOURCE_MAIL_CLIPE@Base 3.0.2
 _ZN10qevercloud26EDAM_PREFERENCE_NAME_REGEXE@Base 3.0.2
 _ZN10qevercloud26EDAM_RELATED_MAX_NOTEBOOKSE@Base 3.0.2
 _ZN10qevercloud26EDAM_USER_PASSWORD_LEN_MAXE@Base 3.0.2
 _ZN10qevercloud26EDAM_USER_PASSWORD_LEN_MINE@Base 3.0.2
 _ZN10qevercloud26EDAM_USER_USERNAME_LEN_MAXE@Base 3.0.2
 _ZN10qevercloud26EDAM_USER_USERNAME_LEN_MINE@Base 3.0.2
 _ZN10qevercloud26NoteStore_getTag_readReplyE10QByteArray@Base 3.0.2
 _ZN10qevercloud26readEnumPremiumOrderStatusERNS_24ThriftBinaryBufferReaderERNS_18PremiumOrderStatus4typeE@Base 3.0.2
 _ZN10qevercloud26readEnumSponsoredGroupRoleERNS_24ThriftBinaryBufferReaderERNS_18SponsoredGroupRole4typeE@Base 3.0.2
 _ZN10qevercloud27EDAM_BUSINESS_NOTEBOOKS_MAXE@Base 3.0.2
 _ZN10qevercloud27EDAM_NOTEBOOK_STACK_LEN_MAXE@Base 3.0.2
 _ZN10qevercloud27EDAM_NOTEBOOK_STACK_LEN_MINE@Base 3.0.2
 _ZN10qevercloud27EDAM_PREFERENCE_VALUE_REGEXE@Base 3.0.2
 _ZN10qevercloud27EDAM_PUBLISHING_URI_LEN_MAXE@Base 3.0.2
 _ZN10qevercloud27EDAM_PUBLISHING_URI_LEN_MINE@Base 3.0.2
 _ZN10qevercloud27EDAM_RESOURCE_SIZE_MAX_FREEE@Base 3.0.2
 _ZN10qevercloud27EDAM_SEARCH_SUGGESTIONS_MAXE@Base 3.0.2
 _ZN10qevercloud27EDAM_USER_UPLOAD_LIMIT_FREEE@Base 3.0.2
 _ZN10qevercloud27EvernoteOAuthWebViewPrivate11qt_metacallEN11QMetaObject4CallEiPPv@Base 3.0.2
 _ZN10qevercloud27EvernoteOAuthWebViewPrivate11qt_metacastEPKc@Base 3.0.2
 _ZN10qevercloud27EvernoteOAuthWebViewPrivate12onUrlChangedERK4QUrl@Base 3.0.2
 _ZN10qevercloud27EvernoteOAuthWebViewPrivate16staticMetaObjectE@Base 3.0.2
 _ZN10qevercloud27EvernoteOAuthWebViewPrivate17permanentFinishedEP7QObject@Base 3.0.2
 _ZN10qevercloud27EvernoteOAuthWebViewPrivate17temporaryFinishedEP7QObject@Base 3.0.2
 _ZN10qevercloud27EvernoteOAuthWebViewPrivate20authenticationFailedEv@Base 3.0.2
 _ZN10qevercloud27EvernoteOAuthWebViewPrivate22authenticationFinishedEb@Base 3.0.2
 _ZN10qevercloud27EvernoteOAuthWebViewPrivate22authenticationSuceededEv@Base 3.0.2
 _ZN10qevercloud27EvernoteOAuthWebViewPrivate8setErrorE7QString@Base 3.0.2
 _ZN10qevercloud27EvernoteOAuthWebViewPrivate9clearHtmlEv@Base 3.0.2
 _ZN10qevercloud27EvernoteOAuthWebViewPrivateC1EP7QWidget@Base 3.0.2
 _ZN10qevercloud27EvernoteOAuthWebViewPrivateC2EP7QWidget@Base 3.0.2
 _ZN10qevercloud27EvernoteOAuthWebViewPrivateD0Ev@Base 3.0.2
 _ZN10qevercloud27EvernoteOAuthWebViewPrivateD1Ev@Base 3.0.2
 _ZN10qevercloud27EvernoteOAuthWebViewPrivateD2Ev@Base 3.0.2
 _ZN10qevercloud27NoteStore_getNote_readReplyE10QByteArray@Base 3.0.2
 _ZN10qevercloud27UserStore_getUser_readReplyE10QByteArray@Base 3.0.2
 _ZN10qevercloud27readEnumReminderEmailConfigERNS_24ThriftBinaryBufferReaderERNS_19ReminderEmailConfig4typeE@Base 3.0.2
 _ZN10qevercloud27readNotesMetadataResultSpecERNS_24ThriftBinaryBufferReaderERNS_23NotesMetadataResultSpecE@Base 3.0.2
 _ZN10qevercloud28EDAM_CONTENT_CLASS_FOOD_MEALE@Base 3.0.2
 _ZN10qevercloud28EDAM_PREFERENCE_NAME_LEN_MAXE@Base 3.0.2
 _ZN10qevercloud28EDAM_PREFERENCE_NAME_LEN_MINE@Base 3.0.2
 _ZN10qevercloud28EDAM_SAVED_SEARCH_NAME_REGEXE@Base 3.0.2
 _ZN10qevercloud28EDAM_USER_SAVED_SEARCHES_MAXE@Base 3.0.2
 _ZN10qevercloud28NoteStore_copyNote_readReplyE10QByteArray@Base 3.0.2
 _ZN10qevercloud28NoteStore_listTags_readReplyE10QByteArray@Base 3.0.2
 _ZN10qevercloud28NoteStore_untagAll_readReplyE10QByteArray@Base 3.0.2
 _ZN10qevercloud28evernoteNetworkAccessManagerEv@Base 3.0.2
 _ZN10qevercloud28writeNotesMetadataResultSpecERNS_24ThriftBinaryBufferWriterERKNS_23NotesMetadataResultSpecE@Base 3.0.2
 _ZN10qevercloud29EDAM_CONTENT_CLASS_SKITCH_PDFE@Base 3.0.2
 _ZN10qevercloud29EDAM_DEVICE_DESCRIPTION_REGEXE@Base 3.0.2
 _ZN10qevercloud29EDAM_NOTE_CONTENT_CLASS_REGEXE@Base 3.0.2
 _ZN10qevercloud29EDAM_PREFERENCE_VALUE_LEN_MAXE@Base 3.0.2
 _ZN10qevercloud29EDAM_PREFERENCE_VALUE_LEN_MINE@Base 3.0.2
 _ZN10qevercloud29EDAM_USER_LINKED_NOTEBOOK_MAXE@Base 3.0.2
 _ZN10qevercloud29NoteStore_createTag_readReplyE10QByteArray@Base 3.0.2
 _ZN10qevercloud29NoteStore_emailNote_readReplyE10QByteArray@Base 3.0.2
 _ZN10qevercloud29NoteStore_findNotes_readReplyE10QByteArray@Base 3.0.2
 _ZN10qevercloud29NoteStore_getSearch_readReplyE10QByteArray@Base 3.0.2
 _ZN10qevercloud29NoteStore_shareNote_readReplyE10QByteArray@Base 3.0.2
 _ZN10qevercloud29NoteStore_updateTag_readReplyE10QByteArray@Base 3.0.2
 _ZN10qevercloud30EDAMSystemExceptionAuthExpiredD0Ev@Base 3.0.2
 _ZN10qevercloud30EDAMSystemExceptionAuthExpiredD1Ev@Base 3.0.2
 _ZN10qevercloud30EDAMSystemExceptionAuthExpiredD2Ev@Base 3.0.2
 _ZN10qevercloud30EDAM_MAX_VALUES_PER_PREFERENCEE@Base 3.0.2
 _ZN10qevercloud30EDAM_PUBLISHING_URI_PROHIBITEDE@Base 3.0.2
 _ZN10qevercloud30EDAM_RELATED_PLAINTEXT_LEN_MAXE@Base 3.0.2
 _ZN10qevercloud30EDAM_RELATED_PLAINTEXT_LEN_MINE@Base 3.0.2
 _ZN10qevercloud30EDAM_RESOURCE_SIZE_MAX_PREMIUME@Base 3.0.2
 _ZN10qevercloud30EDAM_SAVED_SEARCH_NAME_LEN_MAXE@Base 3.0.2
 _ZN10qevercloud30EDAM_SAVED_SEARCH_NAME_LEN_MINE@Base 3.0.2
 _ZN10qevercloud30EDAM_USER_UPLOAD_LIMIT_PREMIUME@Base 3.0.2
 _ZN10qevercloud30NoteStore_createNote_readReplyE10QByteArray@Base 3.0.2
 _ZN10qevercloud30NoteStore_deleteNote_readReplyE10QByteArray@Base 3.0.2
 _ZN10qevercloud30NoteStore_expungeTag_readReplyE10QByteArray@Base 3.0.2
 _ZN10qevercloud30NoteStore_getTag_prepareParamsE7QStringS0_@Base 3.0.2
 _ZN10qevercloud30NoteStore_updateNote_readReplyE10QByteArray@Base 3.0.2
 _ZN10qevercloud31EDAM_APPLICATIONDATA_NAME_REGEXE@Base 3.0.2
 _ZN10qevercloud31EDAM_DEVICE_DESCRIPTION_LEN_MAXE@Base 3.0.2
 _ZN10qevercloud31EDAM_NOTE_CONTENT_CLASS_LEN_MAXE@Base 3.0.2
 _ZN10qevercloud31EDAM_NOTE_CONTENT_CLASS_LEN_MINE@Base 3.0.2
 _ZN10qevercloud31EDAM_USER_MAIL_LIMIT_DAILY_FREEE@Base 3.0.2
 _ZN10qevercloud31EDAM_USER_UPLOAD_LIMIT_BUSINESSE@Base 3.0.2
 _ZN10qevercloud31NoteStore_expungeNote_readReplyE10QByteArray@Base 3.0.2
 _ZN10qevercloud31NoteStore_findRelated_readReplyE10QByteArray@Base 3.0.2
 _ZN10qevercloud31NoteStore_getNote_prepareParamsE7QStringS0_bbbb@Base 3.0.2
 _ZN10qevercloud31NoteStore_getNotebook_readReplyE10QByteArray@Base 3.0.2
 _ZN10qevercloud31NoteStore_getResource_readReplyE10QByteArray@Base 3.0.2
 _ZN10qevercloud31NoteStore_getTag_readReplyAsyncE10QByteArray@Base 3.0.2
 _ZN10qevercloud31UserStore_getUser_prepareParamsE7QString@Base 3.0.2
 _ZN10qevercloud32EDAM_APPLICATIONDATA_VALUE_REGEXE@Base 3.0.2
 _ZN10qevercloud32EDAM_CONTENT_CLASS_HELLO_PROFILEE@Base 3.0.2
 _ZN10qevercloud32EDAM_CONTENT_CLASS_SKITCH_PREFIXE@Base 3.0.2
 _ZN10qevercloud32NoteStore_copyNote_prepareParamsE7QStringS0_S0_@Base 3.0.2
 _ZN10qevercloud32NoteStore_createSearch_readReplyE10QByteArray@Base 3.0.2
 _ZN10qevercloud32NoteStore_expungeNotes_readReplyE10QByteArray@Base 3.0.2
 _ZN10qevercloud32NoteStore_getNote_readReplyAsyncE10QByteArray@Base 3.0.2
 _ZN10qevercloud32NoteStore_getSyncChunk_readReplyE10QByteArray@Base 3.0.2
 _ZN10qevercloud32NoteStore_getSyncState_readReplyE10QByteArray@Base 3.0.2
 _ZN10qevercloud32NoteStore_listSearches_readReplyE10QByteArray@Base 3.0.2
 _ZN10qevercloud32NoteStore_listTags_prepareParamsE7QString@Base 3.0.2
 _ZN10qevercloud32NoteStore_untagAll_prepareParamsE7QStringS0_@Base 3.0.2
 _ZN10qevercloud32NoteStore_updateSearch_readReplyE10QByteArray@Base 3.0.2
 _ZN10qevercloud32UserStore_authenticate_readReplyE10QByteArray@Base 3.0.2
 _ZN10qevercloud32UserStore_checkVersion_readReplyE10QByteArray@Base 3.0.2
 _ZN10qevercloud32UserStore_getUser_readReplyAsyncE10QByteArray@Base 3.0.2
 _ZN10qevercloud33CLASSIFICATION_RECIPE_USER_RECIPEE@Base 3.0.2
 _ZN10qevercloud33EDAM_APPLICATIONDATA_NAME_LEN_MAXE@Base 3.0.2
 _ZN10qevercloud33EDAM_APPLICATIONDATA_NAME_LEN_MINE@Base 3.0.2
 _ZN10qevercloud33EDAM_NOTEBOOK_SHARED_NOTEBOOK_MAXE@Base 3.0.2
 _ZN10qevercloud33EDAM_PUBLISHING_DESCRIPTION_REGEXE@Base 3.0.2
 _ZN10qevercloud33NoteStore_copyNote_readReplyAsyncE10QByteArray@Base 3.0.2
 _ZN10qevercloud33NoteStore_createTag_prepareParamsE7QStringRKNS_3TagE@Base 3.0.2
 _ZN10qevercloud33NoteStore_emailNote_prepareParamsE7QStringRKNS_19NoteEmailParametersE@Base 3.0.2
 _ZN10qevercloud33NoteStore_expungeSearch_readReplyE10QByteArray@Base 3.0.2
 _ZN10qevercloud33NoteStore_findNotes_prepareParamsE7QStringRKNS_10NoteFilterEii@Base 3.0.2
 _ZN10qevercloud33NoteStore_getSearch_prepareParamsE7QStringS0_@Base 3.0.2
 _ZN10qevercloud33NoteStore_listNotebooks_readReplyE10QByteArray@Base 3.0.2
 _ZN10qevercloud33NoteStore_listTags_readReplyAsyncE10QByteArray@Base 3.0.2
 _ZN10qevercloud33NoteStore_shareNote_prepareParamsE7QStringS0_@Base 3.0.2
 _ZN10qevercloud33NoteStore_untagAll_readReplyAsyncE10QByteArray@Base 3.0.2
 _ZN10qevercloud33NoteStore_updateTag_prepareParamsE7QStringRKNS_3TagE@Base 3.0.2
 _ZN10qevercloud34EDAMSystemExceptionAuthExpiredData11qt_metacallEN11QMetaObject4CallEiPPv@Base 3.0.2
 _ZN10qevercloud34EDAMSystemExceptionAuthExpiredData11qt_metacastEPKc@Base 3.0.2
 _ZN10qevercloud34EDAMSystemExceptionAuthExpiredData16staticMetaObjectE@Base 3.0.2
 _ZN10qevercloud34EDAMSystemExceptionAuthExpiredDataC1E7QStringNS_13EDAMErrorCode4typeENS_8OptionalIS1_EENS4_IiEE@Base 3.0.2
 _ZN10qevercloud34EDAMSystemExceptionAuthExpiredDataC2E7QStringNS_13EDAMErrorCode4typeENS_8OptionalIS1_EENS4_IiEE@Base 3.0.2
 _ZN10qevercloud34EDAMSystemExceptionAuthExpiredDataD0Ev@Base 3.0.2
 _ZN10qevercloud34EDAMSystemExceptionAuthExpiredDataD1Ev@Base 3.0.2
 _ZN10qevercloud34EDAMSystemExceptionAuthExpiredDataD2Ev@Base 3.0.2
 _ZN10qevercloud34EDAM_APPLICATIONDATA_ENTRY_LEN_MAXE@Base 3.0.2
 _ZN10qevercloud34EDAM_APPLICATIONDATA_VALUE_LEN_MAXE@Base 3.0.2
 _ZN10qevercloud34EDAM_APPLICATIONDATA_VALUE_LEN_MINE@Base 3.0.2
 _ZN10qevercloud34EDAM_BUSINESS_PHONE_NUMBER_LEN_MAXE@Base 3.0.2
 _ZN10qevercloud34EDAM_CONTENT_CLASS_HELLO_ENCOUNTERE@Base 3.0.2
 _ZN10qevercloud34EDAM_FOOD_APP_CONTENT_CLASS_PREFIXE@Base 3.0.2
 _ZN10qevercloud34EDAM_INDEXABLE_RESOURCE_MIME_TYPESE@Base 3.0.2
 _ZN10qevercloud34EDAM_NOTE_SOURCE_MAIL_SMTP_GATEWAYE@Base 3.0.2
 _ZN10qevercloud34EDAM_USER_MAIL_LIMIT_DAILY_PREMIUME@Base 3.0.2
 _ZN10qevercloud34NoteStore_createNote_prepareParamsE7QStringRKNS_4NoteE@Base 3.0.2
 _ZN10qevercloud34NoteStore_createNotebook_readReplyE10QByteArray@Base 3.0.2
 _ZN10qevercloud34NoteStore_createTag_readReplyAsyncE10QByteArray@Base 3.0.2
 _ZN10qevercloud34NoteStore_deleteNote_prepareParamsE7QStringS0_@Base 3.0.2
 _ZN10qevercloud34NoteStore_emailNote_readReplyAsyncE10QByteArray@Base 3.0.2
 _ZN10qevercloud34NoteStore_expungeTag_prepareParamsE7QStringS0_@Base 3.0.2
 _ZN10qevercloud34NoteStore_findNoteCounts_readReplyE10QByteArray@Base 3.0.2
 _ZN10qevercloud34NoteStore_findNoteOffset_readReplyE10QByteArray@Base 3.0.2
 _ZN10qevercloud34NoteStore_findNotes_readReplyAsyncE10QByteArray@Base 3.0.2
 _ZN10qevercloud34NoteStore_getNoteContent_readReplyE10QByteArray@Base 3.0.2
 _ZN10qevercloud34NoteStore_getNoteVersion_readReplyE10QByteArray@Base 3.0.2
 _ZN10qevercloud34NoteStore_getSearch_readReplyAsyncE10QByteArray@Base 3.0.2
 _ZN10qevercloud34NoteStore_shareNote_readReplyAsyncE10QByteArray@Base 3.0.2
 _ZN10qevercloud34NoteStore_updateNote_prepareParamsE7QStringRKNS_4NoteE@Base 3.0.2
 _ZN10qevercloud34NoteStore_updateNotebook_readReplyE10QByteArray@Base 3.0.2
 _ZN10qevercloud34NoteStore_updateResource_readReplyE10QByteArray@Base 3.0.2
 _ZN10qevercloud34NoteStore_updateTag_readReplyAsyncE10QByteArray@Base 3.0.2
 _ZN10qevercloud34UserStore_getPremiumInfo_readReplyE10QByteArray@Base 3.0.2
 _ZN10qevercloud35EDAMSystemExceptionRateLimitReachedD0Ev@Base 3.0.2
 _ZN10qevercloud35EDAMSystemExceptionRateLimitReachedD1Ev@Base 3.0.2
 _ZN10qevercloud35EDAMSystemExceptionRateLimitReachedD2Ev@Base 3.0.2
 _ZN10qevercloud35EDAM_HELLO_APP_CONTENT_CLASS_PREFIXE@Base 3.0.2
 _ZN10qevercloud35EDAM_PUBLISHING_DESCRIPTION_LEN_MAXE@Base 3.0.2
 _ZN10qevercloud35EDAM_PUBLISHING_DESCRIPTION_LEN_MINE@Base 3.0.2
 _ZN10qevercloud35NoteStore_createNote_readReplyAsyncE10QByteArray@Base 3.0.2
 _ZN10qevercloud35NoteStore_deleteNote_readReplyAsyncE10QByteArray@Base 3.0.2
 _ZN10qevercloud35NoteStore_expungeNote_prepareParamsE7QStringS0_@Base 3.0.2
 _ZN10qevercloud35NoteStore_expungeNotebook_readReplyE10QByteArray@Base 3.0.2
 _ZN10qevercloud35NoteStore_expungeTag_readReplyAsyncE10QByteArray@Base 3.0.2
 _ZN10qevercloud35NoteStore_findRelated_prepareParamsE7QStringRKNS_12RelatedQueryERKNS_17RelatedResultSpecE@Base 3.0.2
 _ZN10qevercloud35NoteStore_getNoteTagNames_readReplyE10QByteArray@Base 3.0.2
 _ZN10qevercloud35NoteStore_getNotebook_prepareParamsE7QStringS0_@Base 3.0.2
 _ZN10qevercloud35NoteStore_getResourceData_readReplyE10QByteArray@Base 3.0.2
 _ZN10qevercloud35NoteStore_getResource_prepareParamsE7QStringS0_bbbb@Base 3.0.2
 _ZN10qevercloud35NoteStore_stopSharingNote_readReplyE10QByteArray@Base 3.0.2
 _ZN10qevercloud35NoteStore_updateNote_readReplyAsyncE10QByteArray@Base 3.0.2
 _ZN10qevercloud35UserStore_getNoteStoreUrl_readReplyE10QByteArray@Base 3.0.2
 _ZN10qevercloud35readSharedNotebookRecipientSettingsERNS_24ThriftBinaryBufferReaderERNS_31SharedNotebookRecipientSettingsE@Base 3.0.2
 _ZN10qevercloud36CLASSIFICATION_RECIPE_SERVICE_RECIPEE@Base 3.0.2
 _ZN10qevercloud36EDAM_PREFERENCE_SHORTCUTS_MAX_VALUESE@Base 3.0.2
 _ZN10qevercloud36NoteStore_createSearch_prepareParamsE7QStringRKNS_11SavedSearchE@Base 3.0.2
 _ZN10qevercloud36NoteStore_expungeNote_readReplyAsyncE10QByteArray@Base 3.0.2
 _ZN10qevercloud36NoteStore_expungeNotes_prepareParamsE7QString5QListIS0_E@Base 3.0.2
 _ZN10qevercloud36NoteStore_findRelated_readReplyAsyncE10QByteArray@Base 3.0.2
 _ZN10qevercloud36NoteStore_getNotebook_readReplyAsyncE10QByteArray@Base 3.0.2
 _ZN10qevercloud36NoteStore_getResource_readReplyAsyncE10QByteArray@Base 3.0.2
 _ZN10qevercloud36NoteStore_getSyncChunk_prepareParamsE7QStringiib@Base 3.0.2
 _ZN10qevercloud36NoteStore_getSyncState_prepareParamsE7QString@Base 3.0.2
 _ZN10qevercloud36NoteStore_listNoteVersions_readReplyE10QByteArray@Base 3.0.2
 _ZN10qevercloud36NoteStore_listSearches_prepareParamsE7QString@Base 3.0.2
 _ZN10qevercloud36NoteStore_updateSearch_prepareParamsE7QStringRKNS_11SavedSearchE@Base 3.0.2
 _ZN10qevercloud36UserStore_authenticate_prepareParamsE7QStringS0_S0_S0_b@Base 3.0.2
 _ZN10qevercloud36UserStore_checkVersion_prepareParamsE7QStringss@Base 3.0.2
 _ZN10qevercloud36UserStore_getBootstrapInfo_readReplyE10QByteArray@Base 3.0.2
 _ZN10qevercloud36readEnumSharedNotebookPrivilegeLevelERNS_24ThriftBinaryBufferReaderERNS_28SharedNotebookPrivilegeLevel4typeE@Base 3.0.2
 _ZN10qevercloud36writeSharedNotebookRecipientSettingsERNS_24ThriftBinaryBufferWriterERKNS_31SharedNotebookRecipientSettingsE@Base 3.0.2
 _ZN10qevercloud37CLASSIFICATION_RECIPE_USER_NON_RECIPEE@Base 3.0.2
 _ZN10qevercloud37EDAM_CONTENT_CLASS_PENULTIMATE_PREFIXE@Base 3.0.2
 _ZN10qevercloud37EDAM_USER_LINKED_NOTEBOOK_MAX_PREMIUME@Base 3.0.2
 _ZN10qevercloud37EDAM_USER_RECENT_MAILED_ADDRESSES_MAXE@Base 3.0.2
 _ZN10qevercloud37NoteStore_createSearch_readReplyAsyncE10QByteArray@Base 3.0.2
 _ZN10qevercloud37NoteStore_expungeNotes_readReplyAsyncE10QByteArray@Base 3.0.2
 _ZN10qevercloud37NoteStore_expungeSearch_prepareParamsE7QStringS0_@Base 3.0.2
 _ZN10qevercloud37NoteStore_findNotesMetadata_readReplyE10QByteArray@Base 3.0.2
 _ZN10qevercloud37NoteStore_getNoteSearchText_readReplyE10QByteArray@Base 3.0.2
 _ZN10qevercloud37NoteStore_getPublicNotebook_readReplyE10QByteArray@Base 3.0.2
 _ZN10qevercloud37NoteStore_getResourceByHash_readReplyE10QByteArray@Base 3.0.2
 _ZN10qevercloud37NoteStore_getSyncChunk_readReplyAsyncE10QByteArray@Base 3.0.2
 _ZN10qevercloud37NoteStore_getSyncState_readReplyAsyncE10QByteArray@Base 3.0.2
 _ZN10qevercloud37NoteStore_listNotebooks_prepareParamsE7QString@Base 3.0.2
 _ZN10qevercloud37NoteStore_listSearches_readReplyAsyncE10QByteArray@Base 3.0.2
 _ZN10qevercloud37NoteStore_updateSearch_readReplyAsyncE10QByteArray@Base 3.0.2
 _ZN10qevercloud37UserStore_authenticate_readReplyAsyncE10QByteArray@Base 3.0.2
 _ZN10qevercloud37UserStore_checkVersion_readReplyAsyncE10QByteArray@Base 3.0.2
 _ZN10qevercloud37UserStore_getPublicUserInfo_readReplyE10QByteArray@Base 3.0.2
 _ZN10qevercloud37UserStore_revokeLongSession_readReplyE10QByteArray@Base 3.0.2
 _ZN10qevercloud38EDAM_SEARCH_SUGGESTIONS_PREFIX_LEN_MAXE@Base 3.0.2
 _ZN10qevercloud38EDAM_SEARCH_SUGGESTIONS_PREFIX_LEN_MINE@Base 3.0.2
 _ZN10qevercloud38NoteStore_createNotebook_prepareParamsE7QStringRKNS_8NotebookE@Base 3.0.2
 _ZN10qevercloud38NoteStore_expungeSearch_readReplyAsyncE10QByteArray@Base 3.0.2
 _ZN10qevercloud38NoteStore_findNoteCounts_prepareParamsE7QStringRKNS_10NoteFilterEb@Base 3.0.2
 _ZN10qevercloud38NoteStore_findNoteOffset_prepareParamsE7QStringRKNS_10NoteFilterES0_@Base 3.0.2
 _ZN10qevercloud38NoteStore_getDefaultNotebook_readReplyE10QByteArray@Base 3.0.2
 _ZN10qevercloud38NoteStore_getNoteContent_prepareParamsE7QStringS0_@Base 3.0.2
 _ZN10qevercloud38NoteStore_getNoteVersion_prepareParamsE7QStringS0_ibbb@Base 3.0.2
 _ZN10qevercloud38NoteStore_listNotebooks_readReplyAsyncE10QByteArray@Base 3.0.2
 _ZN10qevercloud38NoteStore_listTagsByNotebook_readReplyE10QByteArray@Base 3.0.2
 _ZN10qevercloud38NoteStore_updateNotebook_prepareParamsE7QStringRKNS_8NotebookE@Base 3.0.2
 _ZN10qevercloud38NoteStore_updateResource_prepareParamsE7QStringRKNS_8ResourceE@Base 3.0.2
 _ZN10qevercloud38UserStore_getPremiumInfo_prepareParamsE7QString@Base 3.0.2
 _ZN10qevercloud39EDAMSystemExceptionRateLimitReachedData11qt_metacallEN11QMetaObject4CallEiPPv@Base 3.0.2
 _ZN10qevercloud39EDAMSystemExceptionRateLimitReachedData11qt_metacastEPKc@Base 3.0.2
 _ZN10qevercloud39EDAMSystemExceptionRateLimitReachedData16staticMetaObjectE@Base 3.0.2
 _ZN10qevercloud39EDAMSystemExceptionRateLimitReachedDataC1E7QStringNS_13EDAMErrorCode4typeENS_8OptionalIS1_EENS4_IiEE@Base 3.0.2
 _ZN10qevercloud39EDAMSystemExceptionRateLimitReachedDataC2E7QStringNS_13EDAMErrorCode4typeENS_8OptionalIS1_EENS4_IiEE@Base 3.0.2
 _ZN10qevercloud39EDAMSystemExceptionRateLimitReachedDataD0Ev@Base 3.0.2
 _ZN10qevercloud39EDAMSystemExceptionRateLimitReachedDataD1Ev@Base 3.0.2
 _ZN10qevercloud39EDAMSystemExceptionRateLimitReachedDataD2Ev@Base 3.0.2
 _ZN10qevercloud39EDAM_CONTENT_CLASS_PENULTIMATE_NOTEBOOKE@Base 3.0.2
 _ZN10qevercloud39NoteStore_createNotebook_readReplyAsyncE10QByteArray@Base 3.0.2
 _ZN10qevercloud39NoteStore_expungeNotebook_prepareParamsE7QStringS0_@Base 3.0.2
 _ZN10qevercloud39NoteStore_findNoteCounts_readReplyAsyncE10QByteArray@Base 3.0.2
 _ZN10qevercloud39NoteStore_findNoteOffset_readReplyAsyncE10QByteArray@Base 3.0.2
 _ZN10qevercloud39NoteStore_getNoteContent_readReplyAsyncE10QByteArray@Base 3.0.2
 _ZN10qevercloud39NoteStore_getNoteTagNames_prepareParamsE7QStringS0_@Base 3.0.2
 _ZN10qevercloud39NoteStore_getNoteVersion_readReplyAsyncE10QByteArray@Base 3.0.2
 _ZN10qevercloud39NoteStore_getResourceData_prepareParamsE7QStringS0_@Base 3.0.2
 _ZN10qevercloud39NoteStore_listLinkedNotebooks_readReplyE10QByteArray@Base 3.0.2
 _ZN10qevercloud39NoteStore_listSharedNotebooks_readReplyE10QByteArray@Base 3.0.2
 _ZN10qevercloud39NoteStore_stopSharingNote_prepareParamsE7QStringS0_@Base 3.0.2
 _ZN10qevercloud39NoteStore_updateNotebook_readReplyAsyncE10QByteArray@Base 3.0.2
 _ZN10qevercloud39NoteStore_updateResource_readReplyAsyncE10QByteArray@Base 3.0.2
 _ZN10qevercloud39UserStore_getNoteStoreUrl_prepareParamsE7QString@Base 3.0.2
 _ZN10qevercloud39UserStore_getPremiumInfo_readReplyAsyncE10QByteArray@Base 3.0.2
 _ZN10qevercloud3TagD1Ev@Base 3.0.2
 _ZN10qevercloud3TagD2Ev@Base 3.0.2
 _ZN10qevercloud40EDAM_BUSINESS_NOTEBOOK_DESCRIPTION_REGEXE@Base 3.0.2
 _ZN10qevercloud40NoteStore_createLinkedNotebook_readReplyE10QByteArray@Base 3.0.2
 _ZN10qevercloud40NoteStore_createSharedNotebook_readReplyE10QByteArray@Base 3.0.2
 _ZN10qevercloud40NoteStore_expungeInactiveNotes_readReplyE10QByteArray@Base 3.0.2
 _ZN10qevercloud40NoteStore_expungeNotebook_readReplyAsyncE10QByteArray@Base 3.0.2
 _ZN10qevercloud40NoteStore_getFilteredSyncChunk_readReplyE10QByteArray@Base 3.0.2
 _ZN10qevercloud40NoteStore_getNoteTagNames_readReplyAsyncE10QByteArray@Base 3.0.2
 _ZN10qevercloud40NoteStore_getResourceData_readReplyAsyncE10QByteArray@Base 3.0.2
 _ZN10qevercloud40NoteStore_listNoteVersions_prepareParamsE7QStringS0_@Base 3.0.2
 _ZN10qevercloud40NoteStore_stopSharingNote_readReplyAsyncE10QByteArray@Base 3.0.2
 _ZN10qevercloud40NoteStore_updateLinkedNotebook_readReplyE10QByteArray@Base 3.0.2
 _ZN10qevercloud40NoteStore_updateSharedNotebook_readReplyE10QByteArray@Base 3.0.2
 _ZN10qevercloud40UserStore_getBootstrapInfo_prepareParamsE7QString@Base 3.0.2
 _ZN10qevercloud40UserStore_getNoteStoreUrl_readReplyAsyncE10QByteArray@Base 3.0.2
 _ZN10qevercloud41NoteStore_expungeLinkedNotebook_readReplyE10QByteArray@Base 3.0.2
 _ZN10qevercloud41NoteStore_findNotesMetadata_prepareParamsE7QStringRKNS_10NoteFilterEiiRKNS_23NotesMetadataResultSpecE@Base 3.0.2
 _ZN10qevercloud41NoteStore_getNoteSearchText_prepareParamsE7QStringS0_bb@Base 3.0.2
 _ZN10qevercloud41NoteStore_getPublicNotebook_prepareParamsEi7QString@Base 3.0.2
 _ZN10qevercloud41NoteStore_getResourceAttributes_readReplyE10QByteArray@Base 3.0.2
 _ZN10qevercloud41NoteStore_getResourceByHash_prepareParamsE7QStringS0_10QByteArraybbb@Base 3.0.2
 _ZN10qevercloud41NoteStore_getResourceSearchText_readReplyE10QByteArray@Base 3.0.2
 _ZN10qevercloud41NoteStore_listNoteVersions_readReplyAsyncE10QByteArray@Base 3.0.2
 _ZN10qevercloud41UserStore_getBootstrapInfo_readReplyAsyncE10QByteArray@Base 3.0.2
 _ZN10qevercloud41UserStore_getPublicUserInfo_prepareParamsE7QString@Base 3.0.2
 _ZN10qevercloud41UserStore_refreshAuthentication_readReplyE10QByteArray@Base 3.0.2
 _ZN10qevercloud41UserStore_revokeLongSession_prepareParamsE7QString@Base 3.0.2
 _ZN10qevercloud42EDAM_BUSINESS_NOTEBOOK_DESCRIPTION_LEN_MAXE@Base 3.0.2
 _ZN10qevercloud42EDAM_BUSINESS_NOTEBOOK_DESCRIPTION_LEN_MINE@Base 3.0.2
 _ZN10qevercloud42NoteStore_expungeSharedNotebooks_readReplyE10QByteArray@Base 3.0.2
 _ZN10qevercloud42NoteStore_findNotesMetadata_readReplyAsyncE10QByteArray@Base 3.0.2
 _ZN10qevercloud42NoteStore_getDefaultNotebook_prepareParamsE7QString@Base 3.0.2
 _ZN10qevercloud42NoteStore_getNoteApplicationData_readReplyE10QByteArray@Base 3.0.2
 _ZN10qevercloud42NoteStore_getNoteSearchText_readReplyAsyncE10QByteArray@Base 3.0.2
 _ZN10qevercloud42NoteStore_getPublicNotebook_readReplyAsyncE10QByteArray@Base 3.0.2
 _ZN10qevercloud42NoteStore_getResourceByHash_readReplyAsyncE10QByteArray@Base 3.0.2
 _ZN10qevercloud42NoteStore_getResourceRecognition_readReplyE10QByteArray@Base 3.0.2
 _ZN10qevercloud42NoteStore_listTagsByNotebook_prepareParamsE7QStringS0_@Base 3.0.2
 _ZN10qevercloud42UserStore_authenticateToBusiness_readReplyE10QByteArray@Base 3.0.2
 _ZN10qevercloud42UserStore_getPublicUserInfo_readReplyAsyncE10QByteArray@Base 3.0.2
 _ZN10qevercloud42UserStore_revokeLongSession_readReplyAsyncE10QByteArray@Base 3.0.2
 _ZN10qevercloud42readEnumSharedNotebookInstanceRestrictionsERNS_24ThriftBinaryBufferReaderERNS_34SharedNotebookInstanceRestrictions4typeE@Base 3.0.2
 _ZN10qevercloud43NoteStore_getDefaultNotebook_readReplyAsyncE10QByteArray@Base 3.0.2
 _ZN10qevercloud43NoteStore_getSharedNotebookByAuth_readReplyE10QByteArray@Base 3.0.2
 _ZN10qevercloud43NoteStore_getSyncStateWithMetrics_readReplyE10QByteArray@Base 3.0.2
 _ZN10qevercloud43NoteStore_listLinkedNotebooks_prepareParamsE7QString@Base 3.0.2
 _ZN10qevercloud43NoteStore_listSharedNotebooks_prepareParamsE7QString@Base 3.0.2
 _ZN10qevercloud43NoteStore_listTagsByNotebook_readReplyAsyncE10QByteArray@Base 3.0.2
 _ZN10qevercloud43UserStore_authenticateLongSession_readReplyE10QByteArray@Base 3.0.2
 _ZN10qevercloud44NoteStore_authenticateToSharedNote_readReplyE10QByteArray@Base 3.0.2
 _ZN10qevercloud44NoteStore_createLinkedNotebook_prepareParamsE7QStringRKNS_14LinkedNotebookE@Base 3.0.2
 _ZN10qevercloud44NoteStore_createSharedNotebook_prepareParamsE7QStringRKNS_14SharedNotebookE@Base 3.0.2
 _ZN10qevercloud44NoteStore_expungeInactiveNotes_prepareParamsE7QString@Base 3.0.2
 _ZN10qevercloud44NoteStore_getFilteredSyncChunk_prepareParamsE7QStringiiRKNS_15SyncChunkFilterE@Base 3.0.2
 _ZN10qevercloud44NoteStore_getResourceAlternateData_readReplyE10QByteArray@Base 3.0.2
 _ZN10qevercloud44NoteStore_listLinkedNotebooks_readReplyAsyncE10QByteArray@Base 3.0.2
 _ZN10qevercloud44NoteStore_listSharedNotebooks_readReplyAsyncE10QByteArray@Base 3.0.2
 _ZN10qevercloud44NoteStore_updateLinkedNotebook_prepareParamsE7QStringRKNS_14LinkedNotebookE@Base 3.0.2
 _ZN10qevercloud44NoteStore_updateSharedNotebook_prepareParamsE7QStringRKNS_14SharedNotebookE@Base 3.0.2
 _ZN10qevercloud45NoteStore_createLinkedNotebook_readReplyAsyncE10QByteArray@Base 3.0.2
 _ZN10qevercloud45NoteStore_createSharedNotebook_readReplyAsyncE10QByteArray@Base 3.0.2
 _ZN10qevercloud45NoteStore_expungeInactiveNotes_readReplyAsyncE10QByteArray@Base 3.0.2
 _ZN10qevercloud45NoteStore_expungeLinkedNotebook_prepareParamsE7QStringS0_@Base 3.0.2
 _ZN10qevercloud45NoteStore_getFilteredSyncChunk_readReplyAsyncE10QByteArray@Base 3.0.2
 _ZN10qevercloud45NoteStore_getResourceAttributes_prepareParamsE7QStringS0_@Base 3.0.2
 _ZN10qevercloud45NoteStore_getResourceSearchText_prepareParamsE7QStringS0_@Base 3.0.2
 _ZN10qevercloud45NoteStore_updateLinkedNotebook_readReplyAsyncE10QByteArray@Base 3.0.2
 _ZN10qevercloud45NoteStore_updateSharedNotebook_readReplyAsyncE10QByteArray@Base 3.0.2
 _ZN10qevercloud45UserStore_refreshAuthentication_prepareParamsE7QString@Base 3.0.2
 _ZN10qevercloud46NoteStore_expungeLinkedNotebook_readReplyAsyncE10QByteArray@Base 3.0.2
 _ZN10qevercloud46NoteStore_expungeSharedNotebooks_prepareParamsE7QString5QListIxE@Base 3.0.2
 _ZN10qevercloud46NoteStore_getLinkedNotebookSyncChunk_readReplyE10QByteArray@Base 3.0.2
 _ZN10qevercloud46NoteStore_getLinkedNotebookSyncState_readReplyE10QByteArray@Base 3.0.2
 _ZN10qevercloud46NoteStore_getNoteApplicationData_prepareParamsE7QStringS0_@Base 3.0.2
 _ZN10qevercloud46NoteStore_getResourceApplicationData_readReplyE10QByteArray@Base 3.0.2
 _ZN10qevercloud46NoteStore_getResourceAttributes_readReplyAsyncE10QByteArray@Base 3.0.2
 _ZN10qevercloud46NoteStore_getResourceRecognition_prepareParamsE7QStringS0_@Base 3.0.2
 _ZN10qevercloud46NoteStore_getResourceSearchText_readReplyAsyncE10QByteArray@Base 3.0.2
 _ZN10qevercloud46UserStore_authenticateToBusiness_prepareParamsE7QString@Base 3.0.2
 _ZN10qevercloud46UserStore_refreshAuthentication_readReplyAsyncE10QByteArray@Base 3.0.2
 _ZN10qevercloud47NoteStore_expungeSharedNotebooks_readReplyAsyncE10QByteArray@Base 3.0.2
 _ZN10qevercloud47NoteStore_getNoteApplicationDataEntry_readReplyE10QByteArray@Base 3.0.2
 _ZN10qevercloud47NoteStore_getNoteApplicationData_readReplyAsyncE10QByteArray@Base 3.0.2
 _ZN10qevercloud47NoteStore_getResourceRecognition_readReplyAsyncE10QByteArray@Base 3.0.2
 _ZN10qevercloud47NoteStore_getSharedNotebookByAuth_prepareParamsE7QString@Base 3.0.2
 _ZN10qevercloud47NoteStore_getSyncStateWithMetrics_prepareParamsE7QStringRKNS_18ClientUsageMetricsE@Base 3.0.2
 _ZN10qevercloud47NoteStore_setNoteApplicationDataEntry_readReplyE10QByteArray@Base 3.0.2
 _ZN10qevercloud47UserStore_authenticateLongSession_prepareParamsE7QStringS0_S0_S0_S0_S0_b@Base 3.0.2
 _ZN10qevercloud47UserStore_authenticateToBusiness_readReplyAsyncE10QByteArray@Base 3.0.2
 _ZN10qevercloud48NoteStore_authenticateToSharedNote_prepareParamsE7QStringS0_S0_@Base 3.0.2
 _ZN10qevercloud48NoteStore_authenticateToSharedNotebook_readReplyE10QByteArray@Base 3.0.2
 _ZN10qevercloud48NoteStore_getResourceAlternateData_prepareParamsE7QStringS0_@Base 3.0.2
 _ZN10qevercloud48NoteStore_getSharedNotebookByAuth_readReplyAsyncE10QByteArray@Base 3.0.2
 _ZN10qevercloud48NoteStore_getSyncStateWithMetrics_readReplyAsyncE10QByteArray@Base 3.0.2
 _ZN10qevercloud48UserStore_authenticateLongSession_readReplyAsyncE10QByteArray@Base 3.0.2
 _ZN10qevercloud49NoteStore_authenticateToSharedNote_readReplyAsyncE10QByteArray@Base 3.0.2
 _ZN10qevercloud49NoteStore_getResourceAlternateData_readReplyAsyncE10QByteArray@Base 3.0.2
 _ZN10qevercloud49NoteStore_unsetNoteApplicationDataEntry_readReplyE10QByteArray@Base 3.0.2
 _ZN10qevercloud4DataD1Ev@Base 3.0.2
 _ZN10qevercloud4DataD2Ev@Base 3.0.2
 _ZN10qevercloud4NoteC1ERKS0_@Base 3.0.2
 _ZN10qevercloud4NoteC1Ev@Base 3.0.2
 _ZN10qevercloud4NoteC2ERKS0_@Base 3.0.2
 _ZN10qevercloud4NoteC2Ev@Base 3.0.2
 _ZN10qevercloud4NoteD1Ev@Base 3.0.2
 _ZN10qevercloud4NoteD2Ev@Base 3.0.2
 _ZN10qevercloud4NoteaSERKS0_@Base 3.0.2
 _ZN10qevercloud4UserC1ERKS0_@Base 3.0.2
 _ZN10qevercloud4UserC1Ev@Base 3.0.2
 _ZN10qevercloud4UserC2ERKS0_@Base 3.0.2
 _ZN10qevercloud4UserC2Ev@Base 3.0.2
 _ZN10qevercloud4UserD1Ev@Base 3.0.2
 _ZN10qevercloud4UserD2Ev@Base 3.0.2
 _ZN10qevercloud4UseraSERKS0_@Base 3.0.2
 _ZN10qevercloud50NoteStore_getLinkedNotebookSyncChunk_prepareParamsE7QStringRKNS_14LinkedNotebookEiib@Base 3.0.2
 _ZN10qevercloud50NoteStore_getLinkedNotebookSyncState_prepareParamsE7QStringRKNS_14LinkedNotebookE@Base 3.0.2
 _ZN10qevercloud50NoteStore_getResourceApplicationData_prepareParamsE7QStringS0_@Base 3.0.2
 _ZN10qevercloud51NoteStore_getLinkedNotebookSyncChunk_readReplyAsyncE10QByteArray@Base 3.0.2
 _ZN10qevercloud51NoteStore_getLinkedNotebookSyncState_readReplyAsyncE10QByteArray@Base 3.0.2
 _ZN10qevercloud51NoteStore_getNoteApplicationDataEntry_prepareParamsE7QStringS0_S0_@Base 3.0.2
 _ZN10qevercloud51NoteStore_getResourceApplicationDataEntry_readReplyE10QByteArray@Base 3.0.2
 _ZN10qevercloud51NoteStore_getResourceApplicationData_readReplyAsyncE10QByteArray@Base 3.0.2
 _ZN10qevercloud51NoteStore_setNoteApplicationDataEntry_prepareParamsE7QStringS0_S0_S0_@Base 3.0.2
 _ZN10qevercloud51NoteStore_setResourceApplicationDataEntry_readReplyE10QByteArray@Base 3.0.2
 _ZN10qevercloud51UserStore_completeTwoFactorAuthentication_readReplyE10QByteArray@Base 3.0.2
 _ZN10qevercloud52NoteStore_authenticateToSharedNotebook_prepareParamsE7QStringS0_@Base 3.0.2
 _ZN10qevercloud52NoteStore_getNoteApplicationDataEntry_readReplyAsyncE10QByteArray@Base 3.0.2
 _ZN10qevercloud52NoteStore_setNoteApplicationDataEntry_readReplyAsyncE10QByteArray@Base 3.0.2
 _ZN10qevercloud53NoteStore_authenticateToSharedNotebook_readReplyAsyncE10QByteArray@Base 3.0.2
 _ZN10qevercloud53NoteStore_unsetNoteApplicationDataEntry_prepareParamsE7QStringS0_S0_@Base 3.0.2
 _ZN10qevercloud53NoteStore_unsetResourceApplicationDataEntry_readReplyE10QByteArray@Base 3.0.2
 _ZN10qevercloud54NoteStore_sendMessageToSharedNotebookMembers_readReplyE10QByteArray@Base 3.0.2
 _ZN10qevercloud54NoteStore_setSharedNotebookRecipientSettings_readReplyE10QByteArray@Base 3.0.2
 _ZN10qevercloud54NoteStore_unsetNoteApplicationDataEntry_readReplyAsyncE10QByteArray@Base 3.0.2
 _ZN10qevercloud55NoteStore_getResourceApplicationDataEntry_prepareParamsE7QStringS0_S0_@Base 3.0.2
 _ZN10qevercloud55NoteStore_setResourceApplicationDataEntry_prepareParamsE7QStringS0_S0_S0_@Base 3.0.2
 _ZN10qevercloud55UserStore_completeTwoFactorAuthentication_prepareParamsE7QStringS0_S0_S0_@Base 3.0.2
 _ZN10qevercloud56NoteStore_getResourceApplicationDataEntry_readReplyAsyncE10QByteArray@Base 3.0.2
 _ZN10qevercloud56NoteStore_setResourceApplicationDataEntry_readReplyAsyncE10QByteArray@Base 3.0.2
 _ZN10qevercloud56UserStore_completeTwoFactorAuthentication_readReplyAsyncE10QByteArray@Base 3.0.2
 _ZN10qevercloud57NoteStore_unsetResourceApplicationDataEntry_prepareParamsE7QStringS0_S0_@Base 3.0.2
 _ZN10qevercloud58NoteStore_sendMessageToSharedNotebookMembers_prepareParamsE7QStringS0_S0_11QStringList@Base 3.0.2
 _ZN10qevercloud58NoteStore_setSharedNotebookRecipientSettings_prepareParamsE7QStringxRKNS_31SharedNotebookRecipientSettingsE@Base 3.0.2
 _ZN10qevercloud58NoteStore_unsetResourceApplicationDataEntry_readReplyAsyncE10QByteArray@Base 3.0.2
 _ZN10qevercloud59NoteStore_sendMessageToSharedNotebookMembers_readReplyAsyncE10QByteArray@Base 3.0.2
 _ZN10qevercloud59NoteStore_setSharedNotebookRecipientSettings_readReplyAsyncE10QByteArray@Base 3.0.2
 _ZN10qevercloud7LazyMapD1Ev@Base 3.0.2
 _ZN10qevercloud7LazyMapD2Ev@Base 3.0.2
 _ZN10qevercloud7LazyMapaSERKS0_@Base 3.0.2
 _ZN10qevercloud7readTagERNS_24ThriftBinaryBufferReaderERNS_3TagE@Base 3.0.2
 _ZN10qevercloud8NoteListD1Ev@Base 3.0.2
 _ZN10qevercloud8NoteListD2Ev@Base 3.0.2
 _ZN10qevercloud8NotebookC1ERKS0_@Base 3.0.2
 _ZN10qevercloud8NotebookC1Ev@Base 3.0.2
 _ZN10qevercloud8NotebookC2ERKS0_@Base 3.0.2
 _ZN10qevercloud8NotebookC2Ev@Base 3.0.2
 _ZN10qevercloud8NotebookD1Ev@Base 3.0.2
 _ZN10qevercloud8NotebookD2Ev@Base 3.0.2
 _ZN10qevercloud8NotebookaSERKS0_@Base 3.0.2
 _ZN10qevercloud8ResourceC1ERKS0_@Base 3.0.2
 _ZN10qevercloud8ResourceC1Ev@Base 3.0.2
 _ZN10qevercloud8ResourceC2ERKS0_@Base 3.0.2
 _ZN10qevercloud8ResourceC2Ev@Base 3.0.2
 _ZN10qevercloud8ResourceD1Ev@Base 3.0.2
 _ZN10qevercloud8ResourceD2Ev@Base 3.0.2
 _ZN10qevercloud8readDataERNS_24ThriftBinaryBufferReaderERNS_4DataE@Base 3.0.2
 _ZN10qevercloud8readNoteERNS_24ThriftBinaryBufferReaderERNS_4NoteE@Base 3.0.2
 _ZN10qevercloud8readUserERNS_24ThriftBinaryBufferReaderERNS_4UserE@Base 3.0.2
 _ZN10qevercloud8writeTagERNS_24ThriftBinaryBufferWriterERKNS_3TagE@Base 3.0.2
 _ZN10qevercloud9NoteStore10createNoteERKNS_4NoteE7QString@Base 3.0.2
 _ZN10qevercloud9NoteStore10deleteNoteE7QStringS1_@Base 3.0.2
 _ZN10qevercloud9NoteStore10expungeTagE7QStringS1_@Base 3.0.2
 _ZN10qevercloud9NoteStore10updateNoteERKNS_4NoteE7QString@Base 3.0.2
 _ZN10qevercloud9NoteStore11expungeNoteE7QStringS1_@Base 3.0.2
 _ZN10qevercloud9NoteStore11findRelatedERKNS_12RelatedQueryERKNS_17RelatedResultSpecE7QString@Base 3.0.2
 _ZN10qevercloud9NoteStore11getNotebookE7QStringS1_@Base 3.0.2
 _ZN10qevercloud9NoteStore11getResourceE7QStringbbbbS1_@Base 3.0.2
 _ZN10qevercloud9NoteStore11getTagAsyncE7QStringS1_@Base 3.0.2
 _ZN10qevercloud9NoteStore12createSearchERKNS_11SavedSearchE7QString@Base 3.0.2
 _ZN10qevercloud9NoteStore12expungeNotesE5QListI7QStringES2_@Base 3.0.2
 _ZN10qevercloud9NoteStore12getNoteAsyncE7QStringbbbbS1_@Base 3.0.2
 _ZN10qevercloud9NoteStore12getSyncChunkEiib7QString@Base 3.0.2
 _ZN10qevercloud9NoteStore12getSyncStateE7QString@Base 3.0.2
 _ZN10qevercloud9NoteStore12listSearchesE7QString@Base 3.0.2
 _ZN10qevercloud9NoteStore12updateSearchERKNS_11SavedSearchE7QString@Base 3.0.2
 _ZN10qevercloud9NoteStore13copyNoteAsyncE7QStringS1_S1_@Base 3.0.2
 _ZN10qevercloud9NoteStore13expungeSearchE7QStringS1_@Base 3.0.2
 _ZN10qevercloud9NoteStore13listNotebooksE7QString@Base 3.0.2
 _ZN10qevercloud9NoteStore13listTagsAsyncE7QString@Base 3.0.2
 _ZN10qevercloud9NoteStore13untagAllAsyncE7QStringS1_@Base 3.0.2
 _ZN10qevercloud9NoteStore14createNotebookERKNS_8NotebookE7QString@Base 3.0.2
 _ZN10qevercloud9NoteStore14createTagAsyncERKNS_3TagE7QString@Base 3.0.2
 _ZN10qevercloud9NoteStore14emailNoteAsyncERKNS_19NoteEmailParametersE7QString@Base 3.0.2
 _ZN10qevercloud9NoteStore14findNoteCountsERKNS_10NoteFilterEb7QString@Base 3.0.2
 _ZN10qevercloud9NoteStore14findNoteOffsetERKNS_10NoteFilterE7QStringS4_@Base 3.0.2
 _ZN10qevercloud9NoteStore14findNotesAsyncERKNS_10NoteFilterEii7QString@Base 3.0.2
 _ZN10qevercloud9NoteStore14getNoteContentE7QStringS1_@Base 3.0.2
 _ZN10qevercloud9NoteStore14getNoteVersionE7QStringibbbS1_@Base 3.0.2
 _ZN10qevercloud9NoteStore14getSearchAsyncE7QStringS1_@Base 3.0.2
 _ZN10qevercloud9NoteStore14shareNoteAsyncE7QStringS1_@Base 3.0.2
 _ZN10qevercloud9NoteStore14updateNotebookERKNS_8NotebookE7QString@Base 3.0.2
 _ZN10qevercloud9NoteStore14updateResourceERKNS_8ResourceE7QString@Base 3.0.2
 _ZN10qevercloud9NoteStore14updateTagAsyncERKNS_3TagE7QString@Base 3.0.2
 _ZN10qevercloud9NoteStore15createNoteAsyncERKNS_4NoteE7QString@Base 3.0.2
 _ZN10qevercloud9NoteStore15deleteNoteAsyncE7QStringS1_@Base 3.0.2
 _ZN10qevercloud9NoteStore15expungeNotebookE7QStringS1_@Base 3.0.2
 _ZN10qevercloud9NoteStore15expungeTagAsyncE7QStringS1_@Base 3.0.2
 _ZN10qevercloud9NoteStore15getNoteTagNamesE7QStringS1_@Base 3.0.2
 _ZN10qevercloud9NoteStore15getResourceDataE7QStringS1_@Base 3.0.2
 _ZN10qevercloud9NoteStore15stopSharingNoteE7QStringS1_@Base 3.0.2
 _ZN10qevercloud9NoteStore15updateNoteAsyncERKNS_4NoteE7QString@Base 3.0.2
 _ZN10qevercloud9NoteStore16expungeNoteAsyncE7QStringS1_@Base 3.0.2
 _ZN10qevercloud9NoteStore16findRelatedAsyncERKNS_12RelatedQueryERKNS_17RelatedResultSpecE7QString@Base 3.0.2
 _ZN10qevercloud9NoteStore16getNotebookAsyncE7QStringS1_@Base 3.0.2
 _ZN10qevercloud9NoteStore16getResourceAsyncE7QStringbbbbS1_@Base 3.0.2
 _ZN10qevercloud9NoteStore16listNoteVersionsE7QStringS1_@Base 3.0.2
 _ZN10qevercloud9NoteStore17createSearchAsyncERKNS_11SavedSearchE7QString@Base 3.0.2
 _ZN10qevercloud9NoteStore17expungeNotesAsyncE5QListI7QStringES2_@Base 3.0.2
 _ZN10qevercloud9NoteStore17findNotesMetadataERKNS_10NoteFilterEiiRKNS_23NotesMetadataResultSpecE7QString@Base 3.0.2
 _ZN10qevercloud9NoteStore17getNoteSearchTextE7QStringbbS1_@Base 3.0.2
 _ZN10qevercloud9NoteStore17getPublicNotebookEi7QString@Base 3.0.2
 _ZN10qevercloud9NoteStore17getResourceByHashE7QString10QByteArraybbbS1_@Base 3.0.2
 _ZN10qevercloud9NoteStore17getSyncChunkAsyncEiib7QString@Base 3.0.2
 _ZN10qevercloud9NoteStore17getSyncStateAsyncE7QString@Base 3.0.2
 _ZN10qevercloud9NoteStore17listSearchesAsyncE7QString@Base 3.0.2
 _ZN10qevercloud9NoteStore17updateSearchAsyncERKNS_11SavedSearchE7QString@Base 3.0.2
 _ZN10qevercloud9NoteStore18expungeSearchAsyncE7QStringS1_@Base 3.0.2
 _ZN10qevercloud9NoteStore18getDefaultNotebookE7QString@Base 3.0.2
 _ZN10qevercloud9NoteStore18listNotebooksAsyncE7QString@Base 3.0.2
 _ZN10qevercloud9NoteStore18listTagsByNotebookE7QStringS1_@Base 3.0.2
 _ZN10qevercloud9NoteStore19createNotebookAsyncERKNS_8NotebookE7QString@Base 3.0.2
 _ZN10qevercloud9NoteStore19findNoteCountsAsyncERKNS_10NoteFilterEb7QString@Base 3.0.2
 _ZN10qevercloud9NoteStore19findNoteOffsetAsyncERKNS_10NoteFilterE7QStringS4_@Base 3.0.2
 _ZN10qevercloud9NoteStore19getNoteContentAsyncE7QStringS1_@Base 3.0.2
 _ZN10qevercloud9NoteStore19getNoteVersionAsyncE7QStringibbbS1_@Base 3.0.2
 _ZN10qevercloud9NoteStore19listLinkedNotebooksE7QString@Base 3.0.2
 _ZN10qevercloud9NoteStore19listSharedNotebooksE7QString@Base 3.0.2
 _ZN10qevercloud9NoteStore19updateNotebookAsyncERKNS_8NotebookE7QString@Base 3.0.2
 _ZN10qevercloud9NoteStore19updateResourceAsyncERKNS_8ResourceE7QString@Base 3.0.2
 _ZN10qevercloud9NoteStore20createLinkedNotebookERKNS_14LinkedNotebookE7QString@Base 3.0.2
 _ZN10qevercloud9NoteStore20createSharedNotebookERKNS_14SharedNotebookE7QString@Base 3.0.2
 _ZN10qevercloud9NoteStore20expungeInactiveNotesE7QString@Base 3.0.2
 _ZN10qevercloud9NoteStore20expungeNotebookAsyncE7QStringS1_@Base 3.0.2
 _ZN10qevercloud9NoteStore20getFilteredSyncChunkEiiRKNS_15SyncChunkFilterE7QString@Base 3.0.2
 _ZN10qevercloud9NoteStore20getNoteTagNamesAsyncE7QStringS1_@Base 3.0.2
 _ZN10qevercloud9NoteStore20getResourceDataAsyncE7QStringS1_@Base 3.0.2
 _ZN10qevercloud9NoteStore20stopSharingNoteAsyncE7QStringS1_@Base 3.0.2
 _ZN10qevercloud9NoteStore20updateLinkedNotebookERKNS_14LinkedNotebookE7QString@Base 3.0.2
 _ZN10qevercloud9NoteStore20updateSharedNotebookERKNS_14SharedNotebookE7QString@Base 3.0.2
 _ZN10qevercloud9NoteStore21expungeLinkedNotebookE7QStringS1_@Base 3.0.2
 _ZN10qevercloud9NoteStore21getResourceAttributesE7QStringS1_@Base 3.0.2
 _ZN10qevercloud9NoteStore21getResourceSearchTextE7QStringS1_@Base 3.0.2
 _ZN10qevercloud9NoteStore21listNoteVersionsAsyncE7QStringS1_@Base 3.0.2
 _ZN10qevercloud9NoteStore22expungeSharedNotebooksE5QListIxE7QString@Base 3.0.2
 _ZN10qevercloud9NoteStore22findNotesMetadataAsyncERKNS_10NoteFilterEiiRKNS_23NotesMetadataResultSpecE7QString@Base 3.0.2
 _ZN10qevercloud9NoteStore22getNoteApplicationDataE7QStringS1_@Base 3.0.2
 _ZN10qevercloud9NoteStore22getNoteSearchTextAsyncE7QStringbbS1_@Base 3.0.2
 _ZN10qevercloud9NoteStore22getPublicNotebookAsyncEi7QString@Base 3.0.2
 _ZN10qevercloud9NoteStore22getResourceByHashAsyncE7QString10QByteArraybbbS1_@Base 3.0.2
 _ZN10qevercloud9NoteStore22getResourceRecognitionE7QStringS1_@Base 3.0.2
 _ZN10qevercloud9NoteStore23getDefaultNotebookAsyncE7QString@Base 3.0.2
 _ZN10qevercloud9NoteStore23getSharedNotebookByAuthE7QString@Base 3.0.2
 _ZN10qevercloud9NoteStore23getSyncStateWithMetricsERKNS_18ClientUsageMetricsE7QString@Base 3.0.2
 _ZN10qevercloud9NoteStore23listTagsByNotebookAsyncE7QStringS1_@Base 3.0.2
 _ZN10qevercloud9NoteStore24authenticateToSharedNoteE7QStringS1_S1_@Base 3.0.2
 _ZN10qevercloud9NoteStore24getResourceAlternateDataE7QStringS1_@Base 3.0.2
 _ZN10qevercloud9NoteStore24listLinkedNotebooksAsyncE7QString@Base 3.0.2
 _ZN10qevercloud9NoteStore24listSharedNotebooksAsyncE7QString@Base 3.0.2
 _ZN10qevercloud9NoteStore25createLinkedNotebookAsyncERKNS_14LinkedNotebookE7QString@Base 3.0.2
 _ZN10qevercloud9NoteStore25createSharedNotebookAsyncERKNS_14SharedNotebookE7QString@Base 3.0.2
 _ZN10qevercloud9NoteStore25expungeInactiveNotesAsyncE7QString@Base 3.0.2
 _ZN10qevercloud9NoteStore25getFilteredSyncChunkAsyncEiiRKNS_15SyncChunkFilterE7QString@Base 3.0.2
 _ZN10qevercloud9NoteStore25updateLinkedNotebookAsyncERKNS_14LinkedNotebookE7QString@Base 3.0.2
 _ZN10qevercloud9NoteStore25updateSharedNotebookAsyncERKNS_14SharedNotebookE7QString@Base 3.0.2
 _ZN10qevercloud9NoteStore26expungeLinkedNotebookAsyncE7QStringS1_@Base 3.0.2
 _ZN10qevercloud9NoteStore26getLinkedNotebookSyncChunkERKNS_14LinkedNotebookEiib7QString@Base 3.0.2
 _ZN10qevercloud9NoteStore26getLinkedNotebookSyncStateERKNS_14LinkedNotebookE7QString@Base 3.0.2
 _ZN10qevercloud9NoteStore26getResourceApplicationDataE7QStringS1_@Base 3.0.2
 _ZN10qevercloud9NoteStore26getResourceAttributesAsyncE7QStringS1_@Base 3.0.2
 _ZN10qevercloud9NoteStore26getResourceSearchTextAsyncE7QStringS1_@Base 3.0.2
 _ZN10qevercloud9NoteStore27expungeSharedNotebooksAsyncE5QListIxE7QString@Base 3.0.2
 _ZN10qevercloud9NoteStore27getNoteApplicationDataAsyncE7QStringS1_@Base 3.0.2
 _ZN10qevercloud9NoteStore27getNoteApplicationDataEntryE7QStringS1_S1_@Base 3.0.2
 _ZN10qevercloud9NoteStore27getResourceRecognitionAsyncE7QStringS1_@Base 3.0.2
 _ZN10qevercloud9NoteStore27setNoteApplicationDataEntryE7QStringS1_S1_S1_@Base 3.0.2
 _ZN10qevercloud9NoteStore28authenticateToSharedNotebookE7QStringS1_@Base 3.0.2
 _ZN10qevercloud9NoteStore28getSharedNotebookByAuthAsyncE7QString@Base 3.0.2
 _ZN10qevercloud9NoteStore28getSyncStateWithMetricsAsyncERKNS_18ClientUsageMetricsE7QString@Base 3.0.2
 _ZN10qevercloud9NoteStore29authenticateToSharedNoteAsyncE7QStringS1_S1_@Base 3.0.2
 _ZN10qevercloud9NoteStore29getResourceAlternateDataAsyncE7QStringS1_@Base 3.0.2
 _ZN10qevercloud9NoteStore29unsetNoteApplicationDataEntryE7QStringS1_S1_@Base 3.0.2
 _ZN10qevercloud9NoteStore31getLinkedNotebookSyncChunkAsyncERKNS_14LinkedNotebookEiib7QString@Base 3.0.2
 _ZN10qevercloud9NoteStore31getLinkedNotebookSyncStateAsyncERKNS_14LinkedNotebookE7QString@Base 3.0.2
 _ZN10qevercloud9NoteStore31getResourceApplicationDataAsyncE7QStringS1_@Base 3.0.2
 _ZN10qevercloud9NoteStore31getResourceApplicationDataEntryE7QStringS1_S1_@Base 3.0.2
 _ZN10qevercloud9NoteStore31setResourceApplicationDataEntryE7QStringS1_S1_S1_@Base 3.0.2
 _ZN10qevercloud9NoteStore32getNoteApplicationDataEntryAsyncE7QStringS1_S1_@Base 3.0.2
 _ZN10qevercloud9NoteStore32setNoteApplicationDataEntryAsyncE7QStringS1_S1_S1_@Base 3.0.2
 _ZN10qevercloud9NoteStore33authenticateToSharedNotebookAsyncE7QStringS1_@Base 3.0.2
 _ZN10qevercloud9NoteStore33unsetResourceApplicationDataEntryE7QStringS1_S1_@Base 3.0.2
 _ZN10qevercloud9NoteStore34sendMessageToSharedNotebookMembersE7QStringS1_11QStringListS1_@Base 3.0.2
 _ZN10qevercloud9NoteStore34setSharedNotebookRecipientSettingsExRKNS_31SharedNotebookRecipientSettingsE7QString@Base 3.0.2
 _ZN10qevercloud9NoteStore34unsetNoteApplicationDataEntryAsyncE7QStringS1_S1_@Base 3.0.2
 _ZN10qevercloud9NoteStore36getResourceApplicationDataEntryAsyncE7QStringS1_S1_@Base 3.0.2
 _ZN10qevercloud9NoteStore36setResourceApplicationDataEntryAsyncE7QStringS1_S1_S1_@Base 3.0.2
 _ZN10qevercloud9NoteStore38unsetResourceApplicationDataEntryAsyncE7QStringS1_S1_@Base 3.0.2
 _ZN10qevercloud9NoteStore39sendMessageToSharedNotebookMembersAsyncE7QStringS1_11QStringListS1_@Base 3.0.2
 _ZN10qevercloud9NoteStore39setSharedNotebookRecipientSettingsAsyncExRKNS_31SharedNotebookRecipientSettingsE7QString@Base 3.0.2
 _ZN10qevercloud9NoteStore6getTagE7QStringS1_@Base 3.0.2
 _ZN10qevercloud9NoteStore7getNoteE7QStringbbbbS1_@Base 3.0.2
 _ZN10qevercloud9NoteStore8copyNoteE7QStringS1_S1_@Base 3.0.2
 _ZN10qevercloud9NoteStore8listTagsE7QString@Base 3.0.2
 _ZN10qevercloud9NoteStore8untagAllE7QStringS1_@Base 3.0.2
 _ZN10qevercloud9NoteStore9createTagERKNS_3TagE7QString@Base 3.0.2
 _ZN10qevercloud9NoteStore9emailNoteERKNS_19NoteEmailParametersE7QString@Base 3.0.2
 _ZN10qevercloud9NoteStore9findNotesERKNS_10NoteFilterEii7QString@Base 3.0.2
 _ZN10qevercloud9NoteStore9getSearchE7QStringS1_@Base 3.0.2
 _ZN10qevercloud9NoteStore9shareNoteE7QStringS1_@Base 3.0.2
 _ZN10qevercloud9NoteStore9updateTagERKNS_3TagE7QString@Base 3.0.2
 _ZN10qevercloud9NoteStoreC1E7QStringS1_P7QObject@Base 3.0.2
 _ZN10qevercloud9NoteStoreC1EP7QObject@Base 3.0.2
 _ZN10qevercloud9NoteStoreC2E7QStringS1_P7QObject@Base 3.0.2
 _ZN10qevercloud9NoteStoreC2EP7QObject@Base 3.0.2
 _ZN10qevercloud9NoteStoreD0Ev@Base 3.0.2
 _ZN10qevercloud9NoteStoreD1Ev@Base 3.0.2
 _ZN10qevercloud9NoteStoreD2Ev@Base 3.0.2
 _ZN10qevercloud9SyncChunkC1Ev@Base 3.0.2
 _ZN10qevercloud9SyncChunkC2Ev@Base 3.0.2
 _ZN10qevercloud9SyncChunkD1Ev@Base 3.0.2
 _ZN10qevercloud9SyncChunkD2Ev@Base 3.0.2
 _ZN10qevercloud9Thumbnail10setShardIdE7QString@Base 3.0.2
 _ZN10qevercloud9Thumbnail12setImageTypeENS0_9ImageType4typeE@Base 3.0.2
 _ZN10qevercloud9Thumbnail13downloadAsyncE7QStringbb@Base 3.0.2
 _ZN10qevercloud9Thumbnail17createPostRequestE7QStringbb@Base 3.0.2
 _ZN10qevercloud9Thumbnail22setAuthenticationTokenE7QString@Base 3.0.2
 _ZN10qevercloud9Thumbnail7setHostE7QString@Base 3.0.2
 _ZN10qevercloud9Thumbnail7setSizeEi@Base 3.0.2
 _ZN10qevercloud9Thumbnail8downloadE7QStringbb@Base 3.0.2
 _ZN10qevercloud9ThumbnailC1E7QStringS1_S1_iNS0_9ImageType4typeE@Base 3.0.2
 _ZN10qevercloud9ThumbnailC1Ev@Base 3.0.2
 _ZN10qevercloud9ThumbnailC2E7QStringS1_S1_iNS0_9ImageType4typeE@Base 3.0.2
 _ZN10qevercloud9ThumbnailC2Ev@Base 3.0.2
 _ZN10qevercloud9ThumbnailD0Ev@Base 3.0.2
 _ZN10qevercloud9ThumbnailD1Ev@Base 3.0.2
 _ZN10qevercloud9ThumbnailD2Ev@Base 3.0.2
 _ZN10qevercloud9UserStore12authenticateE7QStringS1_S1_S1_b@Base 3.0.2
 _ZN10qevercloud9UserStore12checkVersionE7QStringss@Base 3.0.2
 _ZN10qevercloud9UserStore12getUserAsyncE7QString@Base 3.0.2
 _ZN10qevercloud9UserStore14getPremiumInfoE7QString@Base 3.0.2
 _ZN10qevercloud9UserStore15getNoteStoreUrlE7QString@Base 3.0.2
 _ZN10qevercloud9UserStore16getBootstrapInfoE7QString@Base 3.0.2
 _ZN10qevercloud9UserStore17authenticateAsyncE7QStringS1_S1_S1_b@Base 3.0.2
 _ZN10qevercloud9UserStore17checkVersionAsyncE7QStringss@Base 3.0.2
 _ZN10qevercloud9UserStore17getPublicUserInfoE7QString@Base 3.0.2
 _ZN10qevercloud9UserStore17revokeLongSessionE7QString@Base 3.0.2
 _ZN10qevercloud9UserStore19getPremiumInfoAsyncE7QString@Base 3.0.2
 _ZN10qevercloud9UserStore20getNoteStoreUrlAsyncE7QString@Base 3.0.2
 _ZN10qevercloud9UserStore21getBootstrapInfoAsyncE7QString@Base 3.0.2
 _ZN10qevercloud9UserStore21refreshAuthenticationE7QString@Base 3.0.2
 _ZN10qevercloud9UserStore22authenticateToBusinessE7QString@Base 3.0.2
 _ZN10qevercloud9UserStore22getPublicUserInfoAsyncE7QString@Base 3.0.2
 _ZN10qevercloud9UserStore22revokeLongSessionAsyncE7QString@Base 3.0.2
 _ZN10qevercloud9UserStore23authenticateLongSessionE7QStringS1_S1_S1_S1_S1_b@Base 3.0.2
 _ZN10qevercloud9UserStore26refreshAuthenticationAsyncE7QString@Base 3.0.2
 _ZN10qevercloud9UserStore27authenticateToBusinessAsyncE7QString@Base 3.0.2
 _ZN10qevercloud9UserStore28authenticateLongSessionAsyncE7QStringS1_S1_S1_S1_S1_b@Base 3.0.2
 _ZN10qevercloud9UserStore31completeTwoFactorAuthenticationE7QStringS1_S1_S1_@Base 3.0.2
 _ZN10qevercloud9UserStore36completeTwoFactorAuthenticationAsyncE7QStringS1_S1_S1_@Base 3.0.2
 _ZN10qevercloud9UserStore7getUserE7QString@Base 3.0.2
 _ZN10qevercloud9UserStoreC1E7QStringS1_P7QObject@Base 3.0.2
 _ZN10qevercloud9UserStoreC2E7QStringS1_P7QObject@Base 3.0.2
 _ZN10qevercloud9UserStoreD0Ev@Base 3.0.2
 _ZN10qevercloud9UserStoreD1Ev@Base 3.0.2
 _ZN10qevercloud9UserStoreD2Ev@Base 3.0.2
 _ZN10qevercloud9writeDataERNS_24ThriftBinaryBufferWriterERKNS_4DataE@Base 3.0.2
 _ZN10qevercloud9writeNoteERNS_24ThriftBinaryBufferWriterERKNS_4NoteE@Base 3.0.2
 _ZN10qevercloud9writeUserERNS_24ThriftBinaryBufferWriterERKNS_4UserE@Base 3.0.2
 _ZN14QSharedPointerI21QNetworkAccessManagerED1Ev@Base 3.0.2
 _ZN14QSharedPointerI21QNetworkAccessManagerED2Ev@Base 3.0.2
 _ZN15QtSharedPointer16ExternalRefCountI13QNetworkReplyE5derefEPNS_20ExternalRefCountDataEPS1_@Base 3.0.2
 _ZN15QtSharedPointer16ExternalRefCountIN10qevercloud22EverCloudExceptionDataEE17internalConstructEPS2_@Base 3.0.2
 _ZN15QtSharedPointer16ExternalRefCountIN10qevercloud22EverCloudExceptionDataEE5derefEPNS_20ExternalRefCountDataEPS2_@Base 3.0.2
 _ZN15QtSharedPointer20ExternalRefCountData7destroyEv@Base 3.0.2
 _ZN15QtSharedPointer20ExternalRefCountDataD0Ev@Base 3.0.2
 _ZN15QtSharedPointer20ExternalRefCountDataD1Ev@Base 3.0.2
 _ZN15QtSharedPointer20ExternalRefCountDataD2Ev@Base 3.0.2
 _ZN15QtSharedPointer29ExternalRefCountWithDestroyFn7destroyEv@Base 3.0.2
 _ZN15QtSharedPointer29ExternalRefCountWithDestroyFnD0Ev@Base 3.0.2
 _ZN15QtSharedPointer29ExternalRefCountWithDestroyFnD1Ev@Base 3.0.2
 _ZN15QtSharedPointer29ExternalRefCountWithDestroyFnD2Ev@Base 3.0.2
 _ZN15QtSharedPointer33ExternalRefCountWithCustomDeleterI13QNetworkReplyM7QObjectFvvEE7deleterEPNS_20ExternalRefCountDataE@Base 3.0.2
 _ZN17QForeachContainerIK11QStringListEC1ERS1_@Base 3.0.2
 _ZN17QForeachContainerIK11QStringListEC2ERS1_@Base 3.0.2
 _ZN17QForeachContainerIK5QListI7QStringEEC1ERS3_@Base 3.0.2
 _ZN17QForeachContainerIK5QListI7QStringEEC2ERS3_@Base 3.0.2
 _ZN4QMapI7QStringS0_E13detach_helperEv@Base 3.0.2
 _ZN4QMapI7QStringS0_ED1Ev@Base 3.0.2
 _ZN4QMapI7QStringS0_ED2Ev@Base 3.0.2
 _ZN4QMapI7QStringS0_EixERKS0_@Base 3.0.2
 _ZN4QMapI7QStringiE13detach_helperEv@Base 3.0.2
 _ZN4QMapI7QStringiED1Ev@Base 3.0.2
 _ZN4QMapI7QStringiED2Ev@Base 3.0.2
 _ZN4QSetI7QStringED1Ev@Base 3.0.2
 _ZN4QSetI7QStringED2Ev@Base 3.0.2
 _ZN5QHashI7QString15QHashDummyValueE11deleteNode2EPN9QHashData4NodeE@Base 3.0.2
 _ZN5QHashI7QString15QHashDummyValueE13detach_helperEv@Base 3.0.2
 _ZN5QHashI7QString15QHashDummyValueE13duplicateNodeEPN9QHashData4NodeEPv@Base 3.0.2
 _ZN5QHashI7QString15QHashDummyValueE6insertERKS0_RKS1_@Base 3.0.2
 _ZN5QHashI7QString15QHashDummyValueEC1ERKS2_@Base 3.0.2
 _ZN5QHashI7QString15QHashDummyValueEC2ERKS2_@Base 3.0.2
 _ZN5QListI7QStringE13detach_helperEi@Base 3.0.2
 _ZN5QListI7QStringE18detach_helper_growEii@Base 3.0.2
 _ZN5QListI7QStringE4freeEPN9QListData4DataE@Base 3.0.2
 _ZN5QListI7QStringE6appendERKS0_@Base 3.0.2
 _ZN5QListI7QStringE7reserveEi@Base 3.0.2
 _ZN5QListI7QStringEC1ERKS1_@Base 3.0.2
 _ZN5QListI7QStringEC2ERKS1_@Base 3.0.2
 _ZN5QListI7QStringEaSERKS1_@Base 3.0.2
 _ZN5QListI9QSslErrorE13detach_helperEi@Base 3.0.2
 _ZN5QListIN10qevercloud11SavedSearchEE13detach_helperEi@Base 3.0.2
 _ZN5QListIN10qevercloud11SavedSearchEE18detach_helper_growEii@Base 3.0.2
 _ZN5QListIN10qevercloud11SavedSearchEE6appendERKS1_@Base 3.0.2
 _ZN5QListIN10qevercloud12NoteMetadataEE13detach_helperEi@Base 3.0.2
 _ZN5QListIN10qevercloud12NoteMetadataEE18detach_helper_growEii@Base 3.0.2
 _ZN5QListIN10qevercloud12NoteMetadataEE6appendERKS1_@Base 3.0.2
 _ZN5QListIN10qevercloud12NoteMetadataEE9node_copyEPNS2_4NodeES4_S4_@Base 3.0.2
 _ZN5QListIN10qevercloud13NoteVersionIdEE13detach_helperEi@Base 3.0.2
 _ZN5QListIN10qevercloud13NoteVersionIdEE18detach_helper_growEii@Base 3.0.2
 _ZN5QListIN10qevercloud13NoteVersionIdEE6appendERKS1_@Base 3.0.2
 _ZN5QListIN10qevercloud13NoteVersionIdEE9node_copyEPNS2_4NodeES4_S4_@Base 3.0.2
 _ZN5QListIN10qevercloud14LinkedNotebookEE13detach_helperEi@Base 3.0.2
 _ZN5QListIN10qevercloud14LinkedNotebookEE18detach_helper_growEii@Base 3.0.2
 _ZN5QListIN10qevercloud14LinkedNotebookEE6appendERKS1_@Base 3.0.2
 _ZN5QListIN10qevercloud14LinkedNotebookEE9node_copyEPNS2_4NodeES4_S4_@Base 3.0.2
 _ZN5QListIN10qevercloud14SharedNotebookEE13detach_helperEi@Base 3.0.2
 _ZN5QListIN10qevercloud14SharedNotebookEE18detach_helper_growEii@Base 3.0.2
 _ZN5QListIN10qevercloud14SharedNotebookEE6appendERKS1_@Base 3.0.2
 _ZN5QListIN10qevercloud16BootstrapProfileEE13detach_helperEi@Base 3.0.2
 _ZN5QListIN10qevercloud16BootstrapProfileEE18detach_helper_growEii@Base 3.0.2
 _ZN5QListIN10qevercloud16BootstrapProfileEE6appendERKS1_@Base 3.0.2
 _ZN5QListIN10qevercloud16BootstrapProfileEE9node_copyEPNS2_4NodeES4_S4_@Base 3.0.2
 _ZN5QListIN10qevercloud18NotebookDescriptorEE13detach_helperEi@Base 3.0.2
 _ZN5QListIN10qevercloud18NotebookDescriptorEE18detach_helper_growEii@Base 3.0.2
 _ZN5QListIN10qevercloud18NotebookDescriptorEE6appendERKS1_@Base 3.0.2
 _ZN5QListIN10qevercloud3TagEE13detach_helperEi@Base 3.0.2
 _ZN5QListIN10qevercloud3TagEE18detach_helper_growEii@Base 3.0.2
 _ZN5QListIN10qevercloud3TagEE6appendERKS1_@Base 3.0.2
 _ZN5QListIN10qevercloud3TagEE7reserveEi@Base 3.0.2
 _ZN5QListIN10qevercloud3TagEE9node_copyEPNS2_4NodeES4_S4_@Base 3.0.2
 _ZN5QListIN10qevercloud4NoteEE13detach_helperEi@Base 3.0.2
 _ZN5QListIN10qevercloud4NoteEE18detach_helper_growEii@Base 3.0.2
 _ZN5QListIN10qevercloud4NoteEE6appendERKS1_@Base 3.0.2
 _ZN5QListIN10qevercloud4NoteEE7reserveEi@Base 3.0.2
 _ZN5QListIN10qevercloud4NoteEE9node_copyEPNS2_4NodeES4_S4_@Base 3.0.2
 _ZN5QListIN10qevercloud8NotebookEE13detach_helperEi@Base 3.0.2
 _ZN5QListIN10qevercloud8NotebookEE18detach_helper_growEii@Base 3.0.2
 _ZN5QListIN10qevercloud8NotebookEE6appendERKS1_@Base 3.0.2
 _ZN5QListIN10qevercloud8NotebookEE7reserveEi@Base 3.0.2
 _ZN5QListIN10qevercloud8NotebookEE9node_copyEPNS2_4NodeES4_S4_@Base 3.0.2
 _ZN5QListIN10qevercloud8ResourceEE13detach_helperEi@Base 3.0.2
 _ZN5QListIN10qevercloud8ResourceEE18detach_helper_growEii@Base 3.0.2
 _ZN5QListIN10qevercloud8ResourceEE6appendERKS1_@Base 3.0.2
 _ZN5QListIN10qevercloud8ResourceEE7reserveEi@Base 3.0.2
 _ZN5QListIN10qevercloud8ResourceEE9node_copyEPNS2_4NodeES4_S4_@Base 3.0.2
 _ZN5QListIN10qevercloud8ResourceEEaSERKS2_@Base 3.0.2
 _ZN5QListIxE13detach_helperEi@Base 3.0.2
 _ZN5QListIxE18detach_helper_growEii@Base 3.0.2
 _ZN5QListIxE6appendERKx@Base 3.0.2
 _ZN5QPairI15QNetworkRequest10QByteArrayED1Ev@Base 3.0.2
 _ZN5QPairI15QNetworkRequest10QByteArrayED2Ev@Base 3.0.2
 _ZN7QStringD1Ev@Base 3.0.2
 _ZN7QStringD2Ev@Base 3.0.2
 _ZN7QStringaSEPKc@Base 3.0.2
 _ZNK10qevercloud11AsyncResult10metaObjectEv@Base 3.0.2
 _ZNK10qevercloud12ReplyFetcher10metaObjectEv@Base 3.0.2
 _ZNK10qevercloud15ThriftException13exceptionDataEv@Base 3.0.2
 _ZNK10qevercloud15ThriftException4typeEv@Base 3.0.2
 _ZNK10qevercloud15ThriftException4whatEv@Base 3.0.2
 _ZNK10qevercloud17EDAMUserException13exceptionDataEv@Base 3.0.2
 _ZNK10qevercloud17EDAMUserException4whatEv@Base 3.0.2
 _ZNK10qevercloud17EventLoopFinisher10metaObjectEv@Base 3.0.2
 _ZNK10qevercloud17EvernoteException13exceptionDataEv@Base 3.0.2
 _ZNK10qevercloud18EverCloudException13exceptionDataEv@Base 3.0.2
 _ZNK10qevercloud18EverCloudException4whatEv@Base 3.0.2
 _ZNK10qevercloud19EDAMSystemException13exceptionDataEv@Base 3.0.2
 _ZNK10qevercloud19EDAMSystemException4whatEv@Base 3.0.2
 _ZNK10qevercloud19EvernoteOAuthDialog10oauthErrorEv@Base 3.0.2
 _ZNK10qevercloud19EvernoteOAuthDialog11isSucceededEv@Base 3.0.2
 _ZNK10qevercloud19EvernoteOAuthDialog11oauthResultEv@Base 3.0.2
 _ZNK10qevercloud19ThriftExceptionData10metaObjectEv@Base 3.0.2
 _ZNK10qevercloud19ThriftExceptionData14throwExceptionEv@Base 3.0.2
 _ZNK10qevercloud20EvernoteOAuthWebView10metaObjectEv@Base 3.0.2
 _ZNK10qevercloud20EvernoteOAuthWebView10oauthErrorEv@Base 3.0.2
 _ZNK10qevercloud20EvernoteOAuthWebView11isSucceededEv@Base 3.0.2
 _ZNK10qevercloud20EvernoteOAuthWebView11oauthResultEv@Base 3.0.2
 _ZNK10qevercloud20EvernoteOAuthWebView8sizeHintEv@Base 3.0.2
 _ZNK10qevercloud21EDAMNotFoundException13exceptionDataEv@Base 3.0.2
 _ZNK10qevercloud21EDAMNotFoundException4whatEv@Base 3.0.2
 _ZNK10qevercloud21EDAMUserExceptionData10metaObjectEv@Base 3.0.2
 _ZNK10qevercloud21EDAMUserExceptionData14throwExceptionEv@Base 3.0.2
 _ZNK10qevercloud21EvernoteExceptionData10metaObjectEv@Base 3.0.2
 _ZNK10qevercloud21EvernoteExceptionData14throwExceptionEv@Base 3.0.2
 _ZNK10qevercloud22EverCloudExceptionData10metaObjectEv@Base 3.0.2
 _ZNK10qevercloud22EverCloudExceptionData14throwExceptionEv@Base 3.0.2
 _ZNK10qevercloud23EDAMSystemExceptionData10metaObjectEv@Base 3.0.2
 _ZNK10qevercloud23EDAMSystemExceptionData14throwExceptionEv@Base 3.0.2
 _ZNK10qevercloud25EDAMNotFoundExceptionData10metaObjectEv@Base 3.0.2
 _ZNK10qevercloud25EDAMNotFoundExceptionData14throwExceptionEv@Base 3.0.2
 _ZNK10qevercloud27EvernoteOAuthWebViewPrivate10metaObjectEv@Base 3.0.2
 _ZNK10qevercloud30EDAMSystemExceptionAuthExpired13exceptionDataEv@Base 3.0.2
 _ZNK10qevercloud34EDAMSystemExceptionAuthExpiredData10metaObjectEv@Base 3.0.2
 _ZNK10qevercloud34EDAMSystemExceptionAuthExpiredData14throwExceptionEv@Base 3.0.2
 _ZNK10qevercloud35EDAMSystemExceptionRateLimitReached13exceptionDataEv@Base 3.0.2
 _ZNK10qevercloud39EDAMSystemExceptionRateLimitReachedData10metaObjectEv@Base 3.0.2
 _ZNK10qevercloud39EDAMSystemExceptionRateLimitReachedData14throwExceptionEv@Base 3.0.2
 _ZNK10qevercloud8OptionalI11QStringListE3refEv@Base 3.0.2
 _ZNK10qevercloud8OptionalI4QMapI7QStringS2_EE3refEv@Base 3.0.2
 _ZNK10qevercloud8OptionalI4QMapI7QStringiEE3refEv@Base 3.0.2
 _ZNK10qevercloud8OptionalI5QListI7QStringEE3refEv@Base 3.0.2
 _ZNK10qevercloud8OptionalI5QListINS_3TagEEE3refEv@Base 3.0.2
 _ZNK10qevercloud8OptionalI5QListINS_4NoteEEE3refEv@Base 3.0.2
 _ZNK10qevercloud8OptionalI5QListINS_8NotebookEEE3refEv@Base 3.0.2
 _ZNK10qevercloud8OptionalI5QListINS_8ResourceEEE3refEv@Base 3.0.2
 _ZNK10qevercloud8OptionalI7QStringE3refEv@Base 3.0.2
 _ZNK10qevercloud8OptionalIbE3refEv@Base 3.0.2
 _ZNK10qevercloud8OptionalIdE3refEv@Base 3.0.2
 _ZNK10qevercloud8OptionalIiE3refEv@Base 3.0.2
 _ZNK10qevercloud8OptionalIxE3refEv@Base 3.0.2
 _ZNK4QMapI7QStringS0_E4keysEv@Base 3.0.2
 _ZNK4QMapI7QStringiE4keysEv@Base 3.0.2
 _ZNK5QHashI7QString15QHashDummyValueE8findNodeERKS0_Pj@Base 3.0.2
 _ZTIN10qevercloud11AsyncResultE@Base 3.0.2
 _ZTIN10qevercloud12ReplyFetcherE@Base 3.0.2
 _ZTIN10qevercloud15ThriftExceptionE@Base 3.0.2
 _ZTIN10qevercloud17EDAMUserExceptionE@Base 3.0.2
 _ZTIN10qevercloud17EventLoopFinisherE@Base 3.0.2
 _ZTIN10qevercloud17EvernoteExceptionE@Base 3.0.2
 _ZTIN10qevercloud18AsyncResultPrivateE@Base 3.0.2
 _ZTIN10qevercloud18EverCloudExceptionE@Base 3.0.2
 _ZTIN10qevercloud19EDAMSystemExceptionE@Base 3.0.2
 _ZTIN10qevercloud19EvernoteOAuthDialogE@Base 3.0.2
 _ZTIN10qevercloud19ThriftExceptionDataE@Base 3.0.2
 _ZTIN10qevercloud20EvernoteOAuthWebViewE@Base 3.0.2
 _ZTIN10qevercloud21EDAMNotFoundExceptionE@Base 3.0.2
 _ZTIN10qevercloud21EDAMUserExceptionDataE@Base 3.0.2
 _ZTIN10qevercloud21EvernoteExceptionDataE@Base 3.0.2
 _ZTIN10qevercloud22EverCloudExceptionDataE@Base 3.0.2
 _ZTIN10qevercloud23EDAMSystemExceptionDataE@Base 3.0.2
 _ZTIN10qevercloud25EDAMNotFoundExceptionDataE@Base 3.0.2
 _ZTIN10qevercloud27EvernoteOAuthWebViewPrivateE@Base 3.0.2
 _ZTIN10qevercloud30EDAMSystemExceptionAuthExpiredE@Base 3.0.2
 _ZTIN10qevercloud34EDAMSystemExceptionAuthExpiredDataE@Base 3.0.2
 _ZTIN10qevercloud35EDAMSystemExceptionRateLimitReachedE@Base 3.0.2
 _ZTIN10qevercloud39EDAMSystemExceptionRateLimitReachedDataE@Base 3.0.2
 _ZTIN10qevercloud9NoteStoreE@Base 3.0.2
 _ZTIN10qevercloud9ThumbnailE@Base 3.0.2
 _ZTIN10qevercloud9UserStoreE@Base 3.0.2
 _ZTIN15QtSharedPointer20ExternalRefCountDataE@Base 3.0.2
 _ZTIN15QtSharedPointer29ExternalRefCountWithDestroyFnE@Base 3.0.2
 _ZTSN10qevercloud11AsyncResultE@Base 3.0.2
 _ZTSN10qevercloud12ReplyFetcherE@Base 3.0.2
 _ZTSN10qevercloud15ThriftExceptionE@Base 3.0.2
 _ZTSN10qevercloud17EDAMUserExceptionE@Base 3.0.2
 _ZTSN10qevercloud17EventLoopFinisherE@Base 3.0.2
 _ZTSN10qevercloud17EvernoteExceptionE@Base 3.0.2
 _ZTSN10qevercloud18AsyncResultPrivateE@Base 3.0.2
 _ZTSN10qevercloud18EverCloudExceptionE@Base 3.0.2
 _ZTSN10qevercloud19EDAMSystemExceptionE@Base 3.0.2
 _ZTSN10qevercloud19EvernoteOAuthDialogE@Base 3.0.2
 _ZTSN10qevercloud19ThriftExceptionDataE@Base 3.0.2
 _ZTSN10qevercloud20EvernoteOAuthWebViewE@Base 3.0.2
 _ZTSN10qevercloud21EDAMNotFoundExceptionE@Base 3.0.2
 _ZTSN10qevercloud21EDAMUserExceptionDataE@Base 3.0.2
 _ZTSN10qevercloud21EvernoteExceptionDataE@Base 3.0.2
 _ZTSN10qevercloud22EverCloudExceptionDataE@Base 3.0.2
 _ZTSN10qevercloud23EDAMSystemExceptionDataE@Base 3.0.2
 _ZTSN10qevercloud25EDAMNotFoundExceptionDataE@Base 3.0.2
 _ZTSN10qevercloud27EvernoteOAuthWebViewPrivateE@Base 3.0.2
 _ZTSN10qevercloud30EDAMSystemExceptionAuthExpiredE@Base 3.0.2
 _ZTSN10qevercloud34EDAMSystemExceptionAuthExpiredDataE@Base 3.0.2
 _ZTSN10qevercloud35EDAMSystemExceptionRateLimitReachedE@Base 3.0.2
 _ZTSN10qevercloud39EDAMSystemExceptionRateLimitReachedDataE@Base 3.0.2
 _ZTSN10qevercloud9NoteStoreE@Base 3.0.2
 _ZTSN10qevercloud9ThumbnailE@Base 3.0.2
 _ZTSN10qevercloud9UserStoreE@Base 3.0.2
 _ZTSN15QtSharedPointer20ExternalRefCountDataE@Base 3.0.2
 _ZTSN15QtSharedPointer29ExternalRefCountWithDestroyFnE@Base 3.0.2
 _ZTVN10qevercloud11AsyncResultE@Base 3.0.2
 _ZTVN10qevercloud12ReplyFetcherE@Base 3.0.2
 _ZTVN10qevercloud15ThriftExceptionE@Base 3.0.2
 _ZTVN10qevercloud17EDAMUserExceptionE@Base 3.0.2
 _ZTVN10qevercloud17EventLoopFinisherE@Base 3.0.2
 _ZTVN10qevercloud17EvernoteExceptionE@Base 3.0.2
 _ZTVN10qevercloud18AsyncResultPrivateE@Base 3.0.2
 _ZTVN10qevercloud18EverCloudExceptionE@Base 3.0.2
 _ZTVN10qevercloud19EDAMSystemExceptionE@Base 3.0.2
 _ZTVN10qevercloud19EvernoteOAuthDialogE@Base 3.0.2
 _ZTVN10qevercloud19ThriftExceptionDataE@Base 3.0.2
 _ZTVN10qevercloud20EvernoteOAuthWebViewE@Base 3.0.2
 _ZTVN10qevercloud21EDAMNotFoundExceptionE@Base 3.0.2
 _ZTVN10qevercloud21EDAMUserExceptionDataE@Base 3.0.2
 _ZTVN10qevercloud21EvernoteExceptionDataE@Base 3.0.2
 _ZTVN10qevercloud22EverCloudExceptionDataE@Base 3.0.2
 _ZTVN10qevercloud23EDAMSystemExceptionDataE@Base 3.0.2
 _ZTVN10qevercloud25EDAMNotFoundExceptionDataE@Base 3.0.2
 _ZTVN10qevercloud27EvernoteOAuthWebViewPrivateE@Base 3.0.2
 _ZTVN10qevercloud30EDAMSystemExceptionAuthExpiredE@Base 3.0.2
 _ZTVN10qevercloud34EDAMSystemExceptionAuthExpiredDataE@Base 3.0.2
 _ZTVN10qevercloud35EDAMSystemExceptionRateLimitReachedE@Base 3.0.2
 _ZTVN10qevercloud39EDAMSystemExceptionRateLimitReachedDataE@Base 3.0.2
 _ZTVN10qevercloud9NoteStoreE@Base 3.0.2
 _ZTVN10qevercloud9ThumbnailE@Base 3.0.2
 _ZTVN10qevercloud9UserStoreE@Base 3.0.2
 _ZTVN15QtSharedPointer20ExternalRefCountDataE@Base 3.0.2
 _ZTVN15QtSharedPointer29ExternalRefCountWithDestroyFnE@Base 3.0.2
 _ZThn16_N10qevercloud19EvernoteOAuthDialogD0Ev@Base 3.0.2
 _ZThn16_N10qevercloud19EvernoteOAuthDialogD1Ev@Base 3.0.2
 _ZThn16_N10qevercloud20EvernoteOAuthWebViewD0Ev@Base 3.0.2
 _ZThn16_N10qevercloud20EvernoteOAuthWebViewD1Ev@Base 3.0.2
 _ZThn16_N10qevercloud27EvernoteOAuthWebViewPrivateD0Ev@Base 3.0.2
 _ZThn16_N10qevercloud27EvernoteOAuthWebViewPrivateD1Ev@Base 3.0.2
 _ZZN11QMetaTypeIdI5QListIN10qevercloud11SavedSearchEEE14qt_metatype_idEvE11metatype_id@Base 3.0.2
 _ZZN11QMetaTypeIdI5QListIN10qevercloud13NoteVersionIdEEE14qt_metatype_idEvE11metatype_id@Base 3.0.2
 _ZZN11QMetaTypeIdI5QListIN10qevercloud14LinkedNotebookEEE14qt_metatype_idEvE11metatype_id@Base 3.0.2
 _ZZN11QMetaTypeIdI5QListIN10qevercloud14SharedNotebookEEE14qt_metatype_idEvE11metatype_id@Base 3.0.2
 _ZZN11QMetaTypeIdI5QListIN10qevercloud3TagEEE14qt_metatype_idEvE11metatype_id@Base 3.0.2
 _ZZN11QMetaTypeIdI5QListIN10qevercloud8NotebookEEE14qt_metatype_idEvE11metatype_id@Base 3.0.2
 _ZZN11QMetaTypeIdIN10qevercloud11PremiumInfoEE14qt_metatype_idEvE11metatype_id@Base 3.0.2
 _ZZN11QMetaTypeIdIN10qevercloud11SavedSearchEE14qt_metatype_idEvE11metatype_id@Base 3.0.2
 _ZZN11QMetaTypeIdIN10qevercloud13BootstrapInfoEE14qt_metatype_idEvE11metatype_id@Base 3.0.2
 _ZZN11QMetaTypeIdIN10qevercloud13RelatedResultEE14qt_metatype_idEvE11metatype_id@Base 3.0.2
 _ZZN11QMetaTypeIdIN10qevercloud14LinkedNotebookEE14qt_metatype_idEvE11metatype_id@Base 3.0.2
 _ZZN11QMetaTypeIdIN10qevercloud14PublicUserInfoEE14qt_metatype_idEvE11metatype_id@Base 3.0.2
 _ZZN11QMetaTypeIdIN10qevercloud14SharedNotebookEE14qt_metatype_idEvE11metatype_id@Base 3.0.2
 _ZZN11QMetaTypeIdIN10qevercloud17NotesMetadataListEE14qt_metatype_idEvE11metatype_id@Base 3.0.2
 _ZZN11QMetaTypeIdIN10qevercloud18ResourceAttributesEE14qt_metatype_idEvE11metatype_id@Base 3.0.2
 _ZZN11QMetaTypeIdIN10qevercloud20AuthenticationResultEE14qt_metatype_idEvE11metatype_id@Base 3.0.2
 _ZZN11QMetaTypeIdIN10qevercloud20NoteCollectionCountsEE14qt_metatype_idEvE11metatype_id@Base 3.0.2
 _ZZN11QMetaTypeIdIN10qevercloud3TagEE14qt_metatype_idEvE11metatype_id@Base 3.0.2
 _ZZN11QMetaTypeIdIN10qevercloud4NoteEE14qt_metatype_idEvE11metatype_id@Base 3.0.2
 _ZZN11QMetaTypeIdIN10qevercloud4UserEE14qt_metatype_idEvE11metatype_id@Base 3.0.2
 _ZZN11QMetaTypeIdIN10qevercloud7LazyMapEE14qt_metatype_idEvE11metatype_id@Base 3.0.2
 _ZZN11QMetaTypeIdIN10qevercloud8NoteListEE14qt_metatype_idEvE11metatype_id@Base 3.0.2
 _ZZN11QMetaTypeIdIN10qevercloud8NotebookEE14qt_metatype_idEvE11metatype_id@Base 3.0.2
 _ZZN11QMetaTypeIdIN10qevercloud8ResourceEE14qt_metatype_idEvE11metatype_id@Base 3.0.2
 _ZZN11QMetaTypeIdIN10qevercloud9SyncChunkEE14qt_metatype_idEvE11metatype_id@Base 3.0.2
 _ZZN11QMetaTypeIdIN10qevercloud9SyncStateEE14qt_metatype_idEvE11metatype_id@Base 3.0.2
